
/home/gajjarv/Capstone/Ibex_Core/ibex-demo-system/sw/c/build/demo/cmplx_test/cmplx_test:     file format elf32-littleriscv


Disassembly of section .text:

00100000 <_vectors_start>:
  100000:	0710006f          	j	100870 <default_exc_handler>
  100004:	06d0006f          	j	100870 <default_exc_handler>
  100008:	0690006f          	j	100870 <default_exc_handler>
  10000c:	0650006f          	j	100870 <default_exc_handler>
  100010:	0610006f          	j	100870 <default_exc_handler>
  100014:	05d0006f          	j	100870 <default_exc_handler>
  100018:	0590006f          	j	100870 <default_exc_handler>
  10001c:	0550006f          	j	100870 <default_exc_handler>
  100020:	0510006f          	j	100870 <default_exc_handler>
  100024:	04d0006f          	j	100870 <default_exc_handler>
  100028:	0490006f          	j	100870 <default_exc_handler>
  10002c:	0450006f          	j	100870 <default_exc_handler>
  100030:	0410006f          	j	100870 <default_exc_handler>
  100034:	03d0006f          	j	100870 <default_exc_handler>
  100038:	0390006f          	j	100870 <default_exc_handler>
  10003c:	0350006f          	j	100870 <default_exc_handler>
  100040:	0310006f          	j	100870 <default_exc_handler>
  100044:	02d0006f          	j	100870 <default_exc_handler>
  100048:	0290006f          	j	100870 <default_exc_handler>
  10004c:	0250006f          	j	100870 <default_exc_handler>
  100050:	0210006f          	j	100870 <default_exc_handler>
  100054:	01d0006f          	j	100870 <default_exc_handler>
  100058:	0190006f          	j	100870 <default_exc_handler>
  10005c:	0150006f          	j	100870 <default_exc_handler>
  100060:	0110006f          	j	100870 <default_exc_handler>
  100064:	00d0006f          	j	100870 <default_exc_handler>
  100068:	0090006f          	j	100870 <default_exc_handler>
  10006c:	0050006f          	j	100870 <default_exc_handler>
  100070:	0010006f          	j	100870 <default_exc_handler>
  100074:	7fc0006f          	j	100870 <default_exc_handler>
  100078:	7f80006f          	j	100870 <default_exc_handler>
  10007c:	7f40006f          	j	100870 <default_exc_handler>
  100080:	7f40006f          	j	100874 <reset_handler>

00100084 <vmul>:
  100084:	7179                	addi	sp,sp,-48
  100086:	d622                	sw	s0,44(sp)
  100088:	1800                	addi	s0,sp,48
  10008a:	fca42e23          	sw	a0,-36(s0)
  10008e:	fcb42c23          	sw	a1,-40(s0)
  100092:	fdc42783          	lw	a5,-36(s0)
  100096:	fd842703          	lw	a4,-40(s0)
  10009a:	00e7b78b          	0xe7b78b
  10009e:	fef407a3          	sb	a5,-17(s0)
  1000a2:	fef44783          	lbu	a5,-17(s0)
  1000a6:	853e                	mv	a0,a5
  1000a8:	5432                	lw	s0,44(sp)
  1000aa:	6145                	addi	sp,sp,48
  1000ac:	8082                	ret

001000ae <dump_binop_result>:
  1000ae:	1101                	addi	sp,sp,-32
  1000b0:	ce06                	sw	ra,28(sp)
  1000b2:	cc22                	sw	s0,24(sp)
  1000b4:	1000                	addi	s0,sp,32
  1000b6:	87aa                	mv	a5,a0
  1000b8:	fef407a3          	sb	a5,-17(s0)
  1000bc:	fef44783          	lbu	a5,-17(s0)
  1000c0:	85be                	mv	a1,a5
  1000c2:	00003517          	auipc	a0,0x3
  1000c6:	4d250513          	addi	a0,a0,1234 # 103594 <__errno+0xa>
  1000ca:	04b000ef          	jal	ra,100914 <printf>
  1000ce:	0001                	nop
  1000d0:	40f2                	lw	ra,28(sp)
  1000d2:	4462                	lw	s0,24(sp)
  1000d4:	6105                	addi	sp,sp,32
  1000d6:	8082                	ret

001000d8 <run_mul_test>:
  1000d8:	1101                	addi	sp,sp,-32
  1000da:	ce06                	sw	ra,28(sp)
  1000dc:	cc22                	sw	s0,24(sp)
  1000de:	1000                	addi	s0,sp,32
  1000e0:	06400793          	li	a5,100
  1000e4:	fef42623          	sw	a5,-20(s0)
  1000e8:	06400793          	li	a5,100
  1000ec:	fef42423          	sw	a5,-24(s0)
  1000f0:	fe842583          	lw	a1,-24(s0)
  1000f4:	fec42503          	lw	a0,-20(s0)
  1000f8:	3771                	jal	100084 <vmul>
  1000fa:	87aa                	mv	a5,a0
  1000fc:	fef403a3          	sb	a5,-25(s0)
  100100:	fe744783          	lbu	a5,-25(s0)
  100104:	853e                	mv	a0,a5
  100106:	3765                	jal	1000ae <dump_binop_result>
  100108:	4781                	li	a5,0
  10010a:	853e                	mv	a0,a5
  10010c:	40f2                	lw	ra,28(sp)
  10010e:	4462                	lw	s0,24(sp)
  100110:	6105                	addi	sp,sp,32
  100112:	8082                	ret

00100114 <main>:
  100114:	1101                	addi	sp,sp,-32
  100116:	ce06                	sw	ra,28(sp)
  100118:	cc22                	sw	s0,24(sp)
  10011a:	1000                	addi	s0,sp,32
  10011c:	fe042623          	sw	zero,-20(s0)
  100120:	a039                	j	10012e <main+0x1a>
  100122:	3f5d                	jal	1000d8 <run_mul_test>
  100124:	fec42783          	lw	a5,-20(s0)
  100128:	0785                	addi	a5,a5,1
  10012a:	fef42623          	sw	a5,-20(s0)
  10012e:	fec42703          	lw	a4,-20(s0)
  100132:	4785                	li	a5,1
  100134:	fee7d7e3          	bge	a5,a4,100122 <main+0xe>
  100138:	4781                	li	a5,0
  10013a:	853e                	mv	a0,a5
  10013c:	40f2                	lw	ra,28(sp)
  10013e:	4462                	lw	s0,24(sp)
  100140:	6105                	addi	sp,sp,32
  100142:	8082                	ret

00100144 <putchar>:
  100144:	1101                	addi	sp,sp,-32
  100146:	ce22                	sw	s0,28(sp)
  100148:	1000                	addi	s0,sp,32
  10014a:	fea42623          	sw	a0,-20(s0)
  10014e:	000207b7          	lui	a5,0x20
  100152:	fec42703          	lw	a4,-20(s0)
  100156:	c398                	sw	a4,0(a5)
  100158:	fec42783          	lw	a5,-20(s0)
  10015c:	853e                	mv	a0,a5
  10015e:	4472                	lw	s0,28(sp)
  100160:	6105                	addi	sp,sp,32
  100162:	8082                	ret

00100164 <getchar>:
  100164:	1141                	addi	sp,sp,-16
  100166:	c606                	sw	ra,12(sp)
  100168:	c422                	sw	s0,8(sp)
  10016a:	0800                	addi	s0,sp,16
  10016c:	80001537          	lui	a0,0x80001
  100170:	24f9                	jal	10043e <uart_in>
  100172:	87aa                	mv	a5,a0
  100174:	853e                	mv	a0,a5
  100176:	40b2                	lw	ra,12(sp)
  100178:	4422                	lw	s0,8(sp)
  10017a:	0141                	addi	sp,sp,16
  10017c:	8082                	ret

0010017e <puts>:
  10017e:	1101                	addi	sp,sp,-32
  100180:	ce06                	sw	ra,28(sp)
  100182:	cc22                	sw	s0,24(sp)
  100184:	1000                	addi	s0,sp,32
  100186:	fea42623          	sw	a0,-20(s0)
  10018a:	a819                	j	1001a0 <puts+0x22>
  10018c:	fec42783          	lw	a5,-20(s0)
  100190:	00178713          	addi	a4,a5,1 # 20001 <_stack_len+0x1e001>
  100194:	fee42623          	sw	a4,-20(s0)
  100198:	0007c783          	lbu	a5,0(a5)
  10019c:	853e                	mv	a0,a5
  10019e:	375d                	jal	100144 <putchar>
  1001a0:	fec42783          	lw	a5,-20(s0)
  1001a4:	0007c783          	lbu	a5,0(a5)
  1001a8:	f3f5                	bnez	a5,10018c <puts+0xe>
  1001aa:	4781                	li	a5,0
  1001ac:	853e                	mv	a0,a5
  1001ae:	40f2                	lw	ra,28(sp)
  1001b0:	4462                	lw	s0,24(sp)
  1001b2:	6105                	addi	sp,sp,32
  1001b4:	8082                	ret

001001b6 <puthex>:
  1001b6:	7179                	addi	sp,sp,-48
  1001b8:	d606                	sw	ra,44(sp)
  1001ba:	d422                	sw	s0,40(sp)
  1001bc:	1800                	addi	s0,sp,48
  1001be:	fca42e23          	sw	a0,-36(s0)
  1001c2:	fe042623          	sw	zero,-20(s0)
  1001c6:	a091                	j	10020a <puthex+0x54>
  1001c8:	fdc42783          	lw	a5,-36(s0)
  1001cc:	83f1                	srli	a5,a5,0x1c
  1001ce:	fef42423          	sw	a5,-24(s0)
  1001d2:	fe842703          	lw	a4,-24(s0)
  1001d6:	47a5                	li	a5,9
  1001d8:	00e7c963          	blt	a5,a4,1001ea <puthex+0x34>
  1001dc:	fe842783          	lw	a5,-24(s0)
  1001e0:	03078793          	addi	a5,a5,48
  1001e4:	853e                	mv	a0,a5
  1001e6:	3fb9                	jal	100144 <putchar>
  1001e8:	a039                	j	1001f6 <puthex+0x40>
  1001ea:	fe842783          	lw	a5,-24(s0)
  1001ee:	03778793          	addi	a5,a5,55
  1001f2:	853e                	mv	a0,a5
  1001f4:	3f81                	jal	100144 <putchar>
  1001f6:	fdc42783          	lw	a5,-36(s0)
  1001fa:	0792                	slli	a5,a5,0x4
  1001fc:	fcf42e23          	sw	a5,-36(s0)
  100200:	fec42783          	lw	a5,-20(s0)
  100204:	0785                	addi	a5,a5,1
  100206:	fef42623          	sw	a5,-20(s0)
  10020a:	fec42703          	lw	a4,-20(s0)
  10020e:	479d                	li	a5,7
  100210:	fae7dce3          	bge	a5,a4,1001c8 <puthex+0x12>
  100214:	0001                	nop
  100216:	0001                	nop
  100218:	50b2                	lw	ra,44(sp)
  10021a:	5422                	lw	s0,40(sp)
  10021c:	6145                	addi	sp,sp,48
  10021e:	8082                	ret

00100220 <sim_halt>:
  100220:	1141                	addi	sp,sp,-16
  100222:	c622                	sw	s0,12(sp)
  100224:	0800                	addi	s0,sp,16
  100226:	000207b7          	lui	a5,0x20
  10022a:	07a1                	addi	a5,a5,8
  10022c:	4705                	li	a4,1
  10022e:	c398                	sw	a4,0(a5)
  100230:	0001                	nop
  100232:	4432                	lw	s0,12(sp)
  100234:	0141                	addi	sp,sp,16
  100236:	8082                	ret

00100238 <get_mepc>:
  100238:	1101                	addi	sp,sp,-32
  10023a:	ce22                	sw	s0,28(sp)
  10023c:	1000                	addi	s0,sp,32
  10023e:	341027f3          	csrr	a5,mepc
  100242:	fef42623          	sw	a5,-20(s0)
  100246:	fec42783          	lw	a5,-20(s0)
  10024a:	853e                	mv	a0,a5
  10024c:	4472                	lw	s0,28(sp)
  10024e:	6105                	addi	sp,sp,32
  100250:	8082                	ret

00100252 <get_mcause>:
  100252:	1101                	addi	sp,sp,-32
  100254:	ce22                	sw	s0,28(sp)
  100256:	1000                	addi	s0,sp,32
  100258:	342027f3          	csrr	a5,mcause
  10025c:	fef42623          	sw	a5,-20(s0)
  100260:	fec42783          	lw	a5,-20(s0)
  100264:	853e                	mv	a0,a5
  100266:	4472                	lw	s0,28(sp)
  100268:	6105                	addi	sp,sp,32
  10026a:	8082                	ret

0010026c <get_mtval>:
  10026c:	1101                	addi	sp,sp,-32
  10026e:	ce22                	sw	s0,28(sp)
  100270:	1000                	addi	s0,sp,32
  100272:	343027f3          	csrr	a5,mtval
  100276:	fef42623          	sw	a5,-20(s0)
  10027a:	fec42783          	lw	a5,-20(s0)
  10027e:	853e                	mv	a0,a5
  100280:	4472                	lw	s0,28(sp)
  100282:	6105                	addi	sp,sp,32
  100284:	8082                	ret

00100286 <get_mcycle>:
  100286:	1101                	addi	sp,sp,-32
  100288:	ce22                	sw	s0,28(sp)
  10028a:	1000                	addi	s0,sp,32
  10028c:	b00027f3          	csrr	a5,mcycle
  100290:	fef42623          	sw	a5,-20(s0)
  100294:	fec42783          	lw	a5,-20(s0)
  100298:	853e                	mv	a0,a5
  10029a:	4472                	lw	s0,28(sp)
  10029c:	6105                	addi	sp,sp,32
  10029e:	8082                	ret

001002a0 <reset_mcycle>:
  1002a0:	1141                	addi	sp,sp,-16
  1002a2:	c622                	sw	s0,12(sp)
  1002a4:	0800                	addi	s0,sp,16
  1002a6:	b0001073          	csrw	mcycle,zero
  1002aa:	0001                	nop
  1002ac:	4432                	lw	s0,12(sp)
  1002ae:	0141                	addi	sp,sp,16
  1002b0:	8082                	ret

001002b2 <install_exception_handler>:
  1002b2:	7179                	addi	sp,sp,-48
  1002b4:	d622                	sw	s0,44(sp)
  1002b6:	1800                	addi	s0,sp,48
  1002b8:	fca42e23          	sw	a0,-36(s0)
  1002bc:	fcb42c23          	sw	a1,-40(s0)
  1002c0:	fdc42703          	lw	a4,-36(s0)
  1002c4:	47fd                	li	a5,31
  1002c6:	00e7f463          	bgeu	a5,a4,1002ce <install_exception_handler+0x1c>
  1002ca:	4785                	li	a5,1
  1002cc:	a879                	j	10036a <install_exception_handler+0xb8>
  1002ce:	00003797          	auipc	a5,0x3
  1002d2:	6ca78793          	addi	a5,a5,1738 # 103998 <exc_vectors>
  1002d6:	4398                	lw	a4,0(a5)
  1002d8:	fdc42783          	lw	a5,-36(s0)
  1002dc:	078a                	slli	a5,a5,0x2
  1002de:	97ba                	add	a5,a5,a4
  1002e0:	fef42623          	sw	a5,-20(s0)
  1002e4:	fd842703          	lw	a4,-40(s0)
  1002e8:	fec42783          	lw	a5,-20(s0)
  1002ec:	40f707b3          	sub	a5,a4,a5
  1002f0:	fef42423          	sw	a5,-24(s0)
  1002f4:	fe842703          	lw	a4,-24(s0)
  1002f8:	000807b7          	lui	a5,0x80
  1002fc:	00f75863          	bge	a4,a5,10030c <install_exception_handler+0x5a>
  100300:	fe842703          	lw	a4,-24(s0)
  100304:	fff807b7          	lui	a5,0xfff80
  100308:	00f75463          	bge	a4,a5,100310 <install_exception_handler+0x5e>
  10030c:	4789                	li	a5,2
  10030e:	a8b1                	j	10036a <install_exception_handler+0xb8>
  100310:	fe842783          	lw	a5,-24(s0)
  100314:	fef42223          	sw	a5,-28(s0)
  100318:	fe442783          	lw	a5,-28(s0)
  10031c:	01479713          	slli	a4,a5,0x14
  100320:	7fe007b7          	lui	a5,0x7fe00
  100324:	8f7d                	and	a4,a4,a5
  100326:	fe442783          	lw	a5,-28(s0)
  10032a:	00979693          	slli	a3,a5,0x9
  10032e:	001007b7          	lui	a5,0x100
  100332:	8ff5                	and	a5,a5,a3
  100334:	8f5d                	or	a4,a4,a5
  100336:	fe442683          	lw	a3,-28(s0)
  10033a:	000ff7b7          	lui	a5,0xff
  10033e:	8ff5                	and	a5,a5,a3
  100340:	8f5d                	or	a4,a4,a5
  100342:	fe442783          	lw	a5,-28(s0)
  100346:	00b79693          	slli	a3,a5,0xb
  10034a:	800007b7          	lui	a5,0x80000
  10034e:	8ff5                	and	a5,a5,a3
  100350:	8fd9                	or	a5,a5,a4
  100352:	06f7e793          	ori	a5,a5,111
  100356:	fef42023          	sw	a5,-32(s0)
  10035a:	fec42783          	lw	a5,-20(s0)
  10035e:	fe042703          	lw	a4,-32(s0)
  100362:	c398                	sw	a4,0(a5)
  100364:	0000100f          	fence.i
  100368:	4781                	li	a5,0
  10036a:	853e                	mv	a0,a5
  10036c:	5432                	lw	s0,44(sp)
  10036e:	6145                	addi	sp,sp,48
  100370:	8082                	ret

00100372 <enable_interrupts>:
  100372:	1101                	addi	sp,sp,-32
  100374:	ce22                	sw	s0,28(sp)
  100376:	1000                	addi	s0,sp,32
  100378:	fea42623          	sw	a0,-20(s0)
  10037c:	fec42783          	lw	a5,-20(s0)
  100380:	3047a073          	csrs	mie,a5
  100384:	0001                	nop
  100386:	4472                	lw	s0,28(sp)
  100388:	6105                	addi	sp,sp,32
  10038a:	8082                	ret

0010038c <disable_interrupts>:
  10038c:	1101                	addi	sp,sp,-32
  10038e:	ce22                	sw	s0,28(sp)
  100390:	1000                	addi	s0,sp,32
  100392:	fea42623          	sw	a0,-20(s0)
  100396:	fec42783          	lw	a5,-20(s0)
  10039a:	3047b073          	csrc	mie,a5
  10039e:	0001                	nop
  1003a0:	4472                	lw	s0,28(sp)
  1003a2:	6105                	addi	sp,sp,32
  1003a4:	8082                	ret

001003a6 <set_global_interrupt_enable>:
  1003a6:	1101                	addi	sp,sp,-32
  1003a8:	ce22                	sw	s0,28(sp)
  1003aa:	1000                	addi	s0,sp,32
  1003ac:	fea42623          	sw	a0,-20(s0)
  1003b0:	fec42783          	lw	a5,-20(s0)
  1003b4:	c789                	beqz	a5,1003be <set_global_interrupt_enable+0x18>
  1003b6:	47a1                	li	a5,8
  1003b8:	3007a073          	csrs	mstatus,a5
  1003bc:	a021                	j	1003c4 <set_global_interrupt_enable+0x1e>
  1003be:	47a1                	li	a5,8
  1003c0:	3007b073          	csrc	mstatus,a5
  1003c4:	0001                	nop
  1003c6:	4472                	lw	s0,28(sp)
  1003c8:	6105                	addi	sp,sp,32
  1003ca:	8082                	ret

001003cc <simple_exc_handler>:
  1003cc:	1141                	addi	sp,sp,-16
  1003ce:	c606                	sw	ra,12(sp)
  1003d0:	c422                	sw	s0,8(sp)
  1003d2:	0800                	addi	s0,sp,16
  1003d4:	00003517          	auipc	a0,0x3
  1003d8:	1e050513          	addi	a0,a0,480 # 1035b4 <__errno+0x2a>
  1003dc:	334d                	jal	10017e <puts>
  1003de:	00003517          	auipc	a0,0x3
  1003e2:	1e650513          	addi	a0,a0,486 # 1035c4 <__errno+0x3a>
  1003e6:	3b61                	jal	10017e <puts>
  1003e8:	00003517          	auipc	a0,0x3
  1003ec:	1ec50513          	addi	a0,a0,492 # 1035d4 <__errno+0x4a>
  1003f0:	3379                	jal	10017e <puts>
  1003f2:	3599                	jal	100238 <get_mepc>
  1003f4:	87aa                	mv	a5,a0
  1003f6:	853e                	mv	a0,a5
  1003f8:	3b7d                	jal	1001b6 <puthex>
  1003fa:	00003517          	auipc	a0,0x3
  1003fe:	1e650513          	addi	a0,a0,486 # 1035e0 <__errno+0x56>
  100402:	3bb5                	jal	10017e <puts>
  100404:	35b9                	jal	100252 <get_mcause>
  100406:	87aa                	mv	a5,a0
  100408:	853e                	mv	a0,a5
  10040a:	3375                	jal	1001b6 <puthex>
  10040c:	00003517          	auipc	a0,0x3
  100410:	1e050513          	addi	a0,a0,480 # 1035ec <__errno+0x62>
  100414:	33ad                	jal	10017e <puts>
  100416:	3d99                	jal	10026c <get_mtval>
  100418:	87aa                	mv	a5,a0
  10041a:	853e                	mv	a0,a5
  10041c:	3b69                	jal	1001b6 <puthex>
  10041e:	4529                	li	a0,10
  100420:	3315                	jal	100144 <putchar>
  100422:	a001                	j	100422 <simple_exc_handler+0x56>

00100424 <uart_enable_rx_int>:
  100424:	1141                	addi	sp,sp,-16
  100426:	c606                	sw	ra,12(sp)
  100428:	c422                	sw	s0,8(sp)
  10042a:	0800                	addi	s0,sp,16
  10042c:	6541                	lui	a0,0x10
  10042e:	3791                	jal	100372 <enable_interrupts>
  100430:	4505                	li	a0,1
  100432:	3f95                	jal	1003a6 <set_global_interrupt_enable>
  100434:	0001                	nop
  100436:	40b2                	lw	ra,12(sp)
  100438:	4422                	lw	s0,8(sp)
  10043a:	0141                	addi	sp,sp,16
  10043c:	8082                	ret

0010043e <uart_in>:
  10043e:	7179                	addi	sp,sp,-48
  100440:	d622                	sw	s0,44(sp)
  100442:	1800                	addi	s0,sp,48
  100444:	fca42e23          	sw	a0,-36(s0)
  100448:	57fd                	li	a5,-1
  10044a:	fef42623          	sw	a5,-20(s0)
  10044e:	fdc42783          	lw	a5,-36(s0)
  100452:	07a1                	addi	a5,a5,8
  100454:	439c                	lw	a5,0(a5)
  100456:	8b85                	andi	a5,a5,1
  100458:	e791                	bnez	a5,100464 <uart_in+0x26>
  10045a:	fdc42783          	lw	a5,-36(s0)
  10045e:	439c                	lw	a5,0(a5)
  100460:	fef42623          	sw	a5,-20(s0)
  100464:	fec42783          	lw	a5,-20(s0)
  100468:	853e                	mv	a0,a5
  10046a:	5432                	lw	s0,44(sp)
  10046c:	6145                	addi	sp,sp,48
  10046e:	8082                	ret

00100470 <uart_out>:
  100470:	1101                	addi	sp,sp,-32
  100472:	ce22                	sw	s0,28(sp)
  100474:	1000                	addi	s0,sp,32
  100476:	fea42623          	sw	a0,-20(s0)
  10047a:	87ae                	mv	a5,a1
  10047c:	fef405a3          	sb	a5,-21(s0)
  100480:	0001                	nop
  100482:	fec42783          	lw	a5,-20(s0)
  100486:	07a1                	addi	a5,a5,8
  100488:	439c                	lw	a5,0(a5)
  10048a:	8b89                	andi	a5,a5,2
  10048c:	fbfd                	bnez	a5,100482 <uart_out+0x12>
  10048e:	fec42783          	lw	a5,-20(s0)
  100492:	0791                	addi	a5,a5,4
  100494:	feb44703          	lbu	a4,-21(s0)
  100498:	c398                	sw	a4,0(a5)
  10049a:	0001                	nop
  10049c:	4472                	lw	s0,28(sp)
  10049e:	6105                	addi	sp,sp,32
  1004a0:	8082                	ret

001004a2 <timecmp_update>:
  1004a2:	1101                	addi	sp,sp,-32
  1004a4:	ce22                	sw	s0,28(sp)
  1004a6:	1000                	addi	s0,sp,32
  1004a8:	fea42423          	sw	a0,-24(s0)
  1004ac:	feb42623          	sw	a1,-20(s0)
  1004b0:	800026b7          	lui	a3,0x80002
  1004b4:	06a1                	addi	a3,a3,8
  1004b6:	567d                	li	a2,-1
  1004b8:	c290                	sw	a2,0(a3)
  1004ba:	fec42683          	lw	a3,-20(s0)
  1004be:	0006d713          	srli	a4,a3,0x0
  1004c2:	4781                	li	a5,0
  1004c4:	800026b7          	lui	a3,0x80002
  1004c8:	06b1                	addi	a3,a3,12
  1004ca:	87ba                	mv	a5,a4
  1004cc:	c29c                	sw	a5,0(a3)
  1004ce:	800027b7          	lui	a5,0x80002
  1004d2:	07a1                	addi	a5,a5,8
  1004d4:	fe842703          	lw	a4,-24(s0)
  1004d8:	c398                	sw	a4,0(a5)
  1004da:	0001                	nop
  1004dc:	4472                	lw	s0,28(sp)
  1004de:	6105                	addi	sp,sp,32
  1004e0:	8082                	ret

001004e2 <increment_timecmp>:
  1004e2:	7179                	addi	sp,sp,-48
  1004e4:	d606                	sw	ra,44(sp)
  1004e6:	d422                	sw	s0,40(sp)
  1004e8:	1800                	addi	s0,sp,48
  1004ea:	fca42c23          	sw	a0,-40(s0)
  1004ee:	fcb42e23          	sw	a1,-36(s0)
  1004f2:	28fd                	jal	1005f0 <timer_read>
  1004f4:	fea42423          	sw	a0,-24(s0)
  1004f8:	feb42623          	sw	a1,-20(s0)
  1004fc:	fe842603          	lw	a2,-24(s0)
  100500:	fec42683          	lw	a3,-20(s0)
  100504:	fd842503          	lw	a0,-40(s0)
  100508:	fdc42583          	lw	a1,-36(s0)
  10050c:	00a60733          	add	a4,a2,a0
  100510:	883a                	mv	a6,a4
  100512:	00c83833          	sltu	a6,a6,a2
  100516:	00b687b3          	add	a5,a3,a1
  10051a:	00f806b3          	add	a3,a6,a5
  10051e:	87b6                	mv	a5,a3
  100520:	fee42423          	sw	a4,-24(s0)
  100524:	fef42623          	sw	a5,-20(s0)
  100528:	fe842503          	lw	a0,-24(s0)
  10052c:	fec42583          	lw	a1,-20(s0)
  100530:	3f8d                	jal	1004a2 <timecmp_update>
  100532:	0001                	nop
  100534:	50b2                	lw	ra,44(sp)
  100536:	5422                	lw	s0,40(sp)
  100538:	6145                	addi	sp,sp,48
  10053a:	8082                	ret

0010053c <simple_timer_handler>:
  10053c:	715d                	addi	sp,sp,-80
  10053e:	c686                	sw	ra,76(sp)
  100540:	c496                	sw	t0,72(sp)
  100542:	c29a                	sw	t1,68(sp)
  100544:	c09e                	sw	t2,64(sp)
  100546:	de22                	sw	s0,60(sp)
  100548:	dc2a                	sw	a0,56(sp)
  10054a:	da2e                	sw	a1,52(sp)
  10054c:	d832                	sw	a2,48(sp)
  10054e:	d636                	sw	a3,44(sp)
  100550:	d43a                	sw	a4,40(sp)
  100552:	d23e                	sw	a5,36(sp)
  100554:	d042                	sw	a6,32(sp)
  100556:	ce46                	sw	a7,28(sp)
  100558:	cc72                	sw	t3,24(sp)
  10055a:	ca76                	sw	t4,20(sp)
  10055c:	c87a                	sw	t5,16(sp)
  10055e:	c67e                	sw	t6,12(sp)
  100560:	0880                	addi	s0,sp,80
  100562:	00004797          	auipc	a5,0x4
  100566:	aee78793          	addi	a5,a5,-1298 # 104050 <time_increment>
  10056a:	4398                	lw	a4,0(a5)
  10056c:	43dc                	lw	a5,4(a5)
  10056e:	853a                	mv	a0,a4
  100570:	85be                	mv	a1,a5
  100572:	3f85                	jal	1004e2 <increment_timecmp>
  100574:	00004797          	auipc	a5,0x4
  100578:	ad478793          	addi	a5,a5,-1324 # 104048 <time_elapsed>
  10057c:	4398                	lw	a4,0(a5)
  10057e:	43dc                	lw	a5,4(a5)
  100580:	4505                	li	a0,1
  100582:	4581                	li	a1,0
  100584:	00a70633          	add	a2,a4,a0
  100588:	8832                	mv	a6,a2
  10058a:	00e83833          	sltu	a6,a6,a4
  10058e:	00b786b3          	add	a3,a5,a1
  100592:	00d807b3          	add	a5,a6,a3
  100596:	86be                	mv	a3,a5
  100598:	8732                	mv	a4,a2
  10059a:	87b6                	mv	a5,a3
  10059c:	00004697          	auipc	a3,0x4
  1005a0:	aac68693          	addi	a3,a3,-1364 # 104048 <time_elapsed>
  1005a4:	c298                	sw	a4,0(a3)
  1005a6:	c2dc                	sw	a5,4(a3)
  1005a8:	0001                	nop
  1005aa:	40b6                	lw	ra,76(sp)
  1005ac:	42a6                	lw	t0,72(sp)
  1005ae:	4316                	lw	t1,68(sp)
  1005b0:	4386                	lw	t2,64(sp)
  1005b2:	5472                	lw	s0,60(sp)
  1005b4:	5562                	lw	a0,56(sp)
  1005b6:	55d2                	lw	a1,52(sp)
  1005b8:	5642                	lw	a2,48(sp)
  1005ba:	56b2                	lw	a3,44(sp)
  1005bc:	5722                	lw	a4,40(sp)
  1005be:	5792                	lw	a5,36(sp)
  1005c0:	5802                	lw	a6,32(sp)
  1005c2:	48f2                	lw	a7,28(sp)
  1005c4:	4e62                	lw	t3,24(sp)
  1005c6:	4ed2                	lw	t4,20(sp)
  1005c8:	4f42                	lw	t5,16(sp)
  1005ca:	4fb2                	lw	t6,12(sp)
  1005cc:	6161                	addi	sp,sp,80
  1005ce:	30200073          	mret

001005d2 <timer_init>:
  1005d2:	1141                	addi	sp,sp,-16
  1005d4:	c606                	sw	ra,12(sp)
  1005d6:	c422                	sw	s0,8(sp)
  1005d8:	0800                	addi	s0,sp,16
  1005da:	00000597          	auipc	a1,0x0
  1005de:	f6258593          	addi	a1,a1,-158 # 10053c <simple_timer_handler>
  1005e2:	451d                	li	a0,7
  1005e4:	31f9                	jal	1002b2 <install_exception_handler>
  1005e6:	0001                	nop
  1005e8:	40b2                	lw	ra,12(sp)
  1005ea:	4422                	lw	s0,8(sp)
  1005ec:	0141                	addi	sp,sp,16
  1005ee:	8082                	ret

001005f0 <timer_read>:
  1005f0:	1101                	addi	sp,sp,-32
  1005f2:	ce22                	sw	s0,28(sp)
  1005f4:	1000                	addi	s0,sp,32
  1005f6:	80002837          	lui	a6,0x80002
  1005fa:	0811                	addi	a6,a6,4
  1005fc:	00082803          	lw	a6,0(a6) # 80002000 <_stack_start+0x7fef2000>
  100600:	ff042623          	sw	a6,-20(s0)
  100604:	80002837          	lui	a6,0x80002
  100608:	00082803          	lw	a6,0(a6) # 80002000 <_stack_start+0x7fef2000>
  10060c:	ff042423          	sw	a6,-24(s0)
  100610:	80002837          	lui	a6,0x80002
  100614:	0811                	addi	a6,a6,4
  100616:	00082803          	lw	a6,0(a6) # 80002000 <_stack_start+0x7fef2000>
  10061a:	fec42883          	lw	a7,-20(s0)
  10061e:	fd089ce3          	bne	a7,a6,1005f6 <timer_read+0x6>
  100622:	fec42803          	lw	a6,-20(s0)
  100626:	8542                	mv	a0,a6
  100628:	4581                	li	a1,0
  10062a:	00051793          	slli	a5,a0,0x0
  10062e:	4701                	li	a4,0
  100630:	fe842583          	lw	a1,-24(s0)
  100634:	862e                	mv	a2,a1
  100636:	4681                	li	a3,0
  100638:	00c765b3          	or	a1,a4,a2
  10063c:	feb42023          	sw	a1,-32(s0)
  100640:	8fd5                	or	a5,a5,a3
  100642:	fef42223          	sw	a5,-28(s0)
  100646:	fe042703          	lw	a4,-32(s0)
  10064a:	fe442783          	lw	a5,-28(s0)
  10064e:	853a                	mv	a0,a4
  100650:	85be                	mv	a1,a5
  100652:	4472                	lw	s0,28(sp)
  100654:	6105                	addi	sp,sp,32
  100656:	8082                	ret

00100658 <get_elapsed_time>:
  100658:	1141                	addi	sp,sp,-16
  10065a:	c622                	sw	s0,12(sp)
  10065c:	0800                	addi	s0,sp,16
  10065e:	00004797          	auipc	a5,0x4
  100662:	9ea78793          	addi	a5,a5,-1558 # 104048 <time_elapsed>
  100666:	4398                	lw	a4,0(a5)
  100668:	43dc                	lw	a5,4(a5)
  10066a:	853a                	mv	a0,a4
  10066c:	85be                	mv	a1,a5
  10066e:	4432                	lw	s0,12(sp)
  100670:	0141                	addi	sp,sp,16
  100672:	8082                	ret

00100674 <timer_enable>:
  100674:	1101                	addi	sp,sp,-32
  100676:	ce06                	sw	ra,28(sp)
  100678:	cc22                	sw	s0,24(sp)
  10067a:	1000                	addi	s0,sp,32
  10067c:	fea42423          	sw	a0,-24(s0)
  100680:	feb42623          	sw	a1,-20(s0)
  100684:	00004797          	auipc	a5,0x4
  100688:	9c478793          	addi	a5,a5,-1596 # 104048 <time_elapsed>
  10068c:	4681                	li	a3,0
  10068e:	4701                	li	a4,0
  100690:	c394                	sw	a3,0(a5)
  100692:	c3d8                	sw	a4,4(a5)
  100694:	00004697          	auipc	a3,0x4
  100698:	9bc68693          	addi	a3,a3,-1604 # 104050 <time_increment>
  10069c:	fe842703          	lw	a4,-24(s0)
  1006a0:	fec42783          	lw	a5,-20(s0)
  1006a4:	c298                	sw	a4,0(a3)
  1006a6:	c2dc                	sw	a5,4(a3)
  1006a8:	fe842503          	lw	a0,-24(s0)
  1006ac:	fec42583          	lw	a1,-20(s0)
  1006b0:	3d0d                	jal	1004e2 <increment_timecmp>
  1006b2:	08000513          	li	a0,128
  1006b6:	3975                	jal	100372 <enable_interrupts>
  1006b8:	4505                	li	a0,1
  1006ba:	31f5                	jal	1003a6 <set_global_interrupt_enable>
  1006bc:	0001                	nop
  1006be:	40f2                	lw	ra,28(sp)
  1006c0:	4462                	lw	s0,24(sp)
  1006c2:	6105                	addi	sp,sp,32
  1006c4:	8082                	ret

001006c6 <timer_disable>:
  1006c6:	1141                	addi	sp,sp,-16
  1006c8:	c622                	sw	s0,12(sp)
  1006ca:	0800                	addi	s0,sp,16
  1006cc:	08000793          	li	a5,128
  1006d0:	3047b073          	csrc	mie,a5
  1006d4:	0001                	nop
  1006d6:	4432                	lw	s0,12(sp)
  1006d8:	0141                	addi	sp,sp,16
  1006da:	8082                	ret

001006dc <set_outputs>:
  1006dc:	1101                	addi	sp,sp,-32
  1006de:	ce22                	sw	s0,28(sp)
  1006e0:	1000                	addi	s0,sp,32
  1006e2:	fea42623          	sw	a0,-20(s0)
  1006e6:	feb42423          	sw	a1,-24(s0)
  1006ea:	fec42783          	lw	a5,-20(s0)
  1006ee:	fe842703          	lw	a4,-24(s0)
  1006f2:	c398                	sw	a4,0(a5)
  1006f4:	0001                	nop
  1006f6:	4472                	lw	s0,28(sp)
  1006f8:	6105                	addi	sp,sp,32
  1006fa:	8082                	ret

001006fc <read_gpio>:
  1006fc:	1101                	addi	sp,sp,-32
  1006fe:	ce22                	sw	s0,28(sp)
  100700:	1000                	addi	s0,sp,32
  100702:	fea42623          	sw	a0,-20(s0)
  100706:	fec42783          	lw	a5,-20(s0)
  10070a:	439c                	lw	a5,0(a5)
  10070c:	853e                	mv	a0,a5
  10070e:	4472                	lw	s0,28(sp)
  100710:	6105                	addi	sp,sp,32
  100712:	8082                	ret

00100714 <set_output_bit>:
  100714:	7179                	addi	sp,sp,-48
  100716:	d606                	sw	ra,44(sp)
  100718:	d422                	sw	s0,40(sp)
  10071a:	1800                	addi	s0,sp,48
  10071c:	fca42e23          	sw	a0,-36(s0)
  100720:	fcb42c23          	sw	a1,-40(s0)
  100724:	fcc42a23          	sw	a2,-44(s0)
  100728:	fd442783          	lw	a5,-44(s0)
  10072c:	8b85                	andi	a5,a5,1
  10072e:	fcf42a23          	sw	a5,-44(s0)
  100732:	fdc42503          	lw	a0,-36(s0)
  100736:	37d9                	jal	1006fc <read_gpio>
  100738:	fea42623          	sw	a0,-20(s0)
  10073c:	fd842783          	lw	a5,-40(s0)
  100740:	4705                	li	a4,1
  100742:	00f717b3          	sll	a5,a4,a5
  100746:	fff7c793          	not	a5,a5
  10074a:	873e                	mv	a4,a5
  10074c:	fec42783          	lw	a5,-20(s0)
  100750:	8ff9                	and	a5,a5,a4
  100752:	fef42623          	sw	a5,-20(s0)
  100756:	fd842783          	lw	a5,-40(s0)
  10075a:	fd442703          	lw	a4,-44(s0)
  10075e:	00f717b3          	sll	a5,a4,a5
  100762:	fec42703          	lw	a4,-20(s0)
  100766:	8fd9                	or	a5,a5,a4
  100768:	fef42623          	sw	a5,-20(s0)
  10076c:	fec42583          	lw	a1,-20(s0)
  100770:	fdc42503          	lw	a0,-36(s0)
  100774:	37a5                	jal	1006dc <set_outputs>
  100776:	0001                	nop
  100778:	50b2                	lw	ra,44(sp)
  10077a:	5422                	lw	s0,40(sp)
  10077c:	6145                	addi	sp,sp,48
  10077e:	8082                	ret

00100780 <get_output_bit>:
  100780:	7179                	addi	sp,sp,-48
  100782:	d606                	sw	ra,44(sp)
  100784:	d422                	sw	s0,40(sp)
  100786:	1800                	addi	s0,sp,48
  100788:	fca42e23          	sw	a0,-36(s0)
  10078c:	fcb42c23          	sw	a1,-40(s0)
  100790:	fdc42503          	lw	a0,-36(s0)
  100794:	37a5                	jal	1006fc <read_gpio>
  100796:	fea42623          	sw	a0,-20(s0)
  10079a:	fd842783          	lw	a5,-40(s0)
  10079e:	fec42703          	lw	a4,-20(s0)
  1007a2:	00f757b3          	srl	a5,a4,a5
  1007a6:	fef42623          	sw	a5,-20(s0)
  1007aa:	fec42783          	lw	a5,-20(s0)
  1007ae:	8b85                	andi	a5,a5,1
  1007b0:	fef42623          	sw	a5,-20(s0)
  1007b4:	fec42783          	lw	a5,-20(s0)
  1007b8:	853e                	mv	a0,a5
  1007ba:	50b2                	lw	ra,44(sp)
  1007bc:	5422                	lw	s0,40(sp)
  1007be:	6145                	addi	sp,sp,48
  1007c0:	8082                	ret

001007c2 <set_pwm>:
  1007c2:	1101                	addi	sp,sp,-32
  1007c4:	ce22                	sw	s0,28(sp)
  1007c6:	1000                	addi	s0,sp,32
  1007c8:	fea42623          	sw	a0,-20(s0)
  1007cc:	feb42423          	sw	a1,-24(s0)
  1007d0:	fec42223          	sw	a2,-28(s0)
  1007d4:	fec42783          	lw	a5,-20(s0)
  1007d8:	0791                	addi	a5,a5,4
  1007da:	fe842703          	lw	a4,-24(s0)
  1007de:	c398                	sw	a4,0(a5)
  1007e0:	fec42783          	lw	a5,-20(s0)
  1007e4:	fe442703          	lw	a4,-28(s0)
  1007e8:	c398                	sw	a4,0(a5)
  1007ea:	0001                	nop
  1007ec:	4472                	lw	s0,28(sp)
  1007ee:	6105                	addi	sp,sp,32
  1007f0:	8082                	ret

001007f2 <spi_init>:
  1007f2:	1101                	addi	sp,sp,-32
  1007f4:	ce22                	sw	s0,28(sp)
  1007f6:	1000                	addi	s0,sp,32
  1007f8:	fea42623          	sw	a0,-20(s0)
  1007fc:	feb42423          	sw	a1,-24(s0)
  100800:	fec42223          	sw	a2,-28(s0)
  100804:	fec42783          	lw	a5,-20(s0)
  100808:	fe842703          	lw	a4,-24(s0)
  10080c:	c398                	sw	a4,0(a5)
  10080e:	fec42783          	lw	a5,-20(s0)
  100812:	fe442703          	lw	a4,-28(s0)
  100816:	c3d8                	sw	a4,4(a5)
  100818:	0001                	nop
  10081a:	4472                	lw	s0,28(sp)
  10081c:	6105                	addi	sp,sp,32
  10081e:	8082                	ret

00100820 <spi_send_byte_blocking>:
  100820:	1101                	addi	sp,sp,-32
  100822:	ce22                	sw	s0,28(sp)
  100824:	1000                	addi	s0,sp,32
  100826:	fea42623          	sw	a0,-20(s0)
  10082a:	87ae                	mv	a5,a1
  10082c:	fef405a3          	sb	a5,-21(s0)
  100830:	0001                	nop
  100832:	fec42783          	lw	a5,-20(s0)
  100836:	439c                	lw	a5,0(a5)
  100838:	0791                	addi	a5,a5,4
  10083a:	439c                	lw	a5,0(a5)
  10083c:	8b85                	andi	a5,a5,1
  10083e:	fbf5                	bnez	a5,100832 <spi_send_byte_blocking+0x12>
  100840:	fec42783          	lw	a5,-20(s0)
  100844:	439c                	lw	a5,0(a5)
  100846:	feb44703          	lbu	a4,-21(s0)
  10084a:	c398                	sw	a4,0(a5)
  10084c:	0001                	nop
  10084e:	4472                	lw	s0,28(sp)
  100850:	6105                	addi	sp,sp,32
  100852:	8082                	ret

00100854 <spi_get_status>:
  100854:	1101                	addi	sp,sp,-32
  100856:	ce22                	sw	s0,28(sp)
  100858:	1000                	addi	s0,sp,32
  10085a:	fea42623          	sw	a0,-20(s0)
  10085e:	fec42783          	lw	a5,-20(s0)
  100862:	439c                	lw	a5,0(a5)
  100864:	0791                	addi	a5,a5,4
  100866:	439c                	lw	a5,0(a5)
  100868:	853e                	mv	a0,a5
  10086a:	4472                	lw	s0,28(sp)
  10086c:	6105                	addi	sp,sp,32
  10086e:	8082                	ret

00100870 <default_exc_handler>:
  100870:	b5dff06f          	j	1003cc <simple_exc_handler>

00100874 <reset_handler>:
  100874:	00000093          	li	ra,0
  100878:	8106                	mv	sp,ra
  10087a:	8186                	mv	gp,ra
  10087c:	8206                	mv	tp,ra
  10087e:	8286                	mv	t0,ra
  100880:	8306                	mv	t1,ra
  100882:	8386                	mv	t2,ra
  100884:	8406                	mv	s0,ra
  100886:	8486                	mv	s1,ra
  100888:	8506                	mv	a0,ra
  10088a:	8586                	mv	a1,ra
  10088c:	8606                	mv	a2,ra
  10088e:	8686                	mv	a3,ra
  100890:	8706                	mv	a4,ra
  100892:	8786                	mv	a5,ra
  100894:	8806                	mv	a6,ra
  100896:	8886                	mv	a7,ra
  100898:	8906                	mv	s2,ra
  10089a:	8986                	mv	s3,ra
  10089c:	8a06                	mv	s4,ra
  10089e:	8a86                	mv	s5,ra
  1008a0:	8b06                	mv	s6,ra
  1008a2:	8b86                	mv	s7,ra
  1008a4:	8c06                	mv	s8,ra
  1008a6:	8c86                	mv	s9,ra
  1008a8:	8d06                	mv	s10,ra
  1008aa:	8d86                	mv	s11,ra
  1008ac:	8e06                	mv	t3,ra
  1008ae:	8e86                	mv	t4,ra
  1008b0:	8f06                	mv	t5,ra
  1008b2:	8f86                	mv	t6,ra
  1008b4:	0000f117          	auipc	sp,0xf
  1008b8:	74c10113          	addi	sp,sp,1868 # 110000 <_stack_start>

001008bc <_start>:
  1008bc:	00003d17          	auipc	s10,0x3
  1008c0:	78cd0d13          	addi	s10,s10,1932 # 104048 <time_elapsed>
  1008c4:	00004d97          	auipc	s11,0x4
  1008c8:	910d8d93          	addi	s11,s11,-1776 # 1041d4 <_bss_end>
  1008cc:	01bd5763          	bge	s10,s11,1008da <main_entry>

001008d0 <zero_loop>:
  1008d0:	000d2023          	sw	zero,0(s10)
  1008d4:	0d11                	addi	s10,s10,4
  1008d6:	ffaddde3          	bge	s11,s10,1008d0 <zero_loop>

001008da <main_entry>:
  1008da:	4501                	li	a0,0
  1008dc:	4581                	li	a1,0
  1008de:	837ff0ef          	jal	ra,100114 <main>
  1008e2:	000202b7          	lui	t0,0x20
  1008e6:	02a1                	addi	t0,t0,8
  1008e8:	4305                	li	t1,1
  1008ea:	0062a023          	sw	t1,0(t0) # 20000 <_stack_len+0x1e000>

001008ee <sleep_loop>:
  1008ee:	10500073          	wfi
  1008f2:	bff5                	j	1008ee <sleep_loop>

001008f4 <_printf_r>:
  1008f4:	7139                	addi	sp,sp,-64
  1008f6:	d432                	sw	a2,40(sp)
  1008f8:	d636                	sw	a3,44(sp)
  1008fa:	d83a                	sw	a4,48(sp)
  1008fc:	da3e                	sw	a5,52(sp)
  1008fe:	dc42                	sw	a6,56(sp)
  100900:	de46                	sw	a7,60(sp)
  100902:	862e                	mv	a2,a1
  100904:	450c                	lw	a1,8(a0)
  100906:	1034                	addi	a3,sp,40
  100908:	ce06                	sw	ra,28(sp)
  10090a:	c636                	sw	a3,12(sp)
  10090c:	2815                	jal	100940 <_vfprintf_r>
  10090e:	40f2                	lw	ra,28(sp)
  100910:	6121                	addi	sp,sp,64
  100912:	8082                	ret

00100914 <printf>:
  100914:	7139                	addi	sp,sp,-64
  100916:	da3e                	sw	a5,52(sp)
  100918:	001047b7          	lui	a5,0x104
  10091c:	99c7a783          	lw	a5,-1636(a5) # 10399c <_impure_ptr>
  100920:	d432                	sw	a2,40(sp)
  100922:	d636                	sw	a3,44(sp)
  100924:	d22e                	sw	a1,36(sp)
  100926:	d83a                	sw	a4,48(sp)
  100928:	dc42                	sw	a6,56(sp)
  10092a:	de46                	sw	a7,60(sp)
  10092c:	478c                	lw	a1,8(a5)
  10092e:	1054                	addi	a3,sp,36
  100930:	862a                	mv	a2,a0
  100932:	853e                	mv	a0,a5
  100934:	ce06                	sw	ra,28(sp)
  100936:	c636                	sw	a3,12(sp)
  100938:	2021                	jal	100940 <_vfprintf_r>
  10093a:	40f2                	lw	ra,28(sp)
  10093c:	6121                	addi	sp,sp,64
  10093e:	8082                	ret

00100940 <_vfprintf_r>:
  100940:	7115                	addi	sp,sp,-224
  100942:	cda2                	sw	s0,216(sp)
  100944:	cba6                	sw	s1,212(sp)
  100946:	c5d2                	sw	s4,200(sp)
  100948:	c3d6                	sw	s5,196(sp)
  10094a:	cf86                	sw	ra,220(sp)
  10094c:	c9ca                	sw	s2,208(sp)
  10094e:	c7ce                	sw	s3,204(sp)
  100950:	c1da                	sw	s6,192(sp)
  100952:	df5e                	sw	s7,188(sp)
  100954:	dd62                	sw	s8,184(sp)
  100956:	db66                	sw	s9,180(sp)
  100958:	d96a                	sw	s10,176(sp)
  10095a:	d76e                	sw	s11,172(sp)
  10095c:	84aa                	mv	s1,a0
  10095e:	842e                	mv	s0,a1
  100960:	8ab2                	mv	s5,a2
  100962:	8a36                	mv	s4,a3
  100964:	c509                	beqz	a0,10096e <_vfprintf_r+0x2e>
  100966:	595c                	lw	a5,52(a0)
  100968:	e399                	bnez	a5,10096e <_vfprintf_r+0x2e>
  10096a:	3e8010ef          	jal	ra,101d52 <__sinit>
  10096e:	00c41783          	lh	a5,12(s0)
  100972:	01279713          	slli	a4,a5,0x12
  100976:	00074b63          	bltz	a4,10098c <_vfprintf_r+0x4c>
  10097a:	6689                	lui	a3,0x2
  10097c:	5078                	lw	a4,100(s0)
  10097e:	8fd5                	or	a5,a5,a3
  100980:	00f41623          	sh	a5,12(s0)
  100984:	77f9                	lui	a5,0xffffe
  100986:	17fd                	addi	a5,a5,-1
  100988:	8ff9                	and	a5,a5,a4
  10098a:	d07c                	sw	a5,100(s0)
  10098c:	00c45783          	lhu	a5,12(s0)
  100990:	8ba1                	andi	a5,a5,8
  100992:	c3a1                	beqz	a5,1009d2 <_vfprintf_r+0x92>
  100994:	481c                	lw	a5,16(s0)
  100996:	cf95                	beqz	a5,1009d2 <_vfprintf_r+0x92>
  100998:	00c45783          	lhu	a5,12(s0)
  10099c:	4729                	li	a4,10
  10099e:	8be9                	andi	a5,a5,26
  1009a0:	06e79063          	bne	a5,a4,100a00 <_vfprintf_r+0xc0>
  1009a4:	00e41783          	lh	a5,14(s0)
  1009a8:	0407cc63          	bltz	a5,100a00 <_vfprintf_r+0xc0>
  1009ac:	85a2                	mv	a1,s0
  1009ae:	446e                	lw	s0,216(sp)
  1009b0:	40fe                	lw	ra,220(sp)
  1009b2:	494e                	lw	s2,208(sp)
  1009b4:	49be                	lw	s3,204(sp)
  1009b6:	4b0e                	lw	s6,192(sp)
  1009b8:	5bfa                	lw	s7,188(sp)
  1009ba:	5c6a                	lw	s8,184(sp)
  1009bc:	5cda                	lw	s9,180(sp)
  1009be:	5d4a                	lw	s10,176(sp)
  1009c0:	5dba                	lw	s11,172(sp)
  1009c2:	86d2                	mv	a3,s4
  1009c4:	8656                	mv	a2,s5
  1009c6:	4a2e                	lw	s4,200(sp)
  1009c8:	4a9e                	lw	s5,196(sp)
  1009ca:	8526                	mv	a0,s1
  1009cc:	44de                	lw	s1,212(sp)
  1009ce:	612d                	addi	sp,sp,224
  1009d0:	add1                	j	1010a4 <__sbprintf>
  1009d2:	85a2                	mv	a1,s0
  1009d4:	8526                	mv	a0,s1
  1009d6:	7b4010ef          	jal	ra,10218a <__swsetup_r>
  1009da:	dd5d                	beqz	a0,100998 <_vfprintf_r+0x58>
  1009dc:	57fd                	li	a5,-1
  1009de:	c43e                	sw	a5,8(sp)
  1009e0:	40fe                	lw	ra,220(sp)
  1009e2:	446e                	lw	s0,216(sp)
  1009e4:	4522                	lw	a0,8(sp)
  1009e6:	44de                	lw	s1,212(sp)
  1009e8:	494e                	lw	s2,208(sp)
  1009ea:	49be                	lw	s3,204(sp)
  1009ec:	4a2e                	lw	s4,200(sp)
  1009ee:	4a9e                	lw	s5,196(sp)
  1009f0:	4b0e                	lw	s6,192(sp)
  1009f2:	5bfa                	lw	s7,188(sp)
  1009f4:	5c6a                	lw	s8,184(sp)
  1009f6:	5cda                	lw	s9,180(sp)
  1009f8:	5d4a                	lw	s10,176(sp)
  1009fa:	5dba                	lw	s11,172(sp)
  1009fc:	612d                	addi	sp,sp,224
  1009fe:	8082                	ret
  100a00:	00103737          	lui	a4,0x103
  100a04:	6a070713          	addi	a4,a4,1696 # 1036a0 <__errno+0x116>
  100a08:	ca3a                	sw	a4,20(sp)
  100a0a:	00103737          	lui	a4,0x103
  100a0e:	06010913          	addi	s2,sp,96
  100a12:	5f870713          	addi	a4,a4,1528 # 1035f8 <__errno+0x6e>
  100a16:	d64a                	sw	s2,44(sp)
  100a18:	da02                	sw	zero,52(sp)
  100a1a:	d802                	sw	zero,48(sp)
  100a1c:	87ca                	mv	a5,s2
  100a1e:	c602                	sw	zero,12(sp)
  100a20:	c402                	sw	zero,8(sp)
  100a22:	cc3a                	sw	a4,24(sp)
  100a24:	89d6                	mv	s3,s5
  100a26:	02500693          	li	a3,37
  100a2a:	0009c703          	lbu	a4,0(s3)
  100a2e:	c319                	beqz	a4,100a34 <_vfprintf_r+0xf4>
  100a30:	0ad71063          	bne	a4,a3,100ad0 <_vfprintf_r+0x190>
  100a34:	41598bb3          	sub	s7,s3,s5
  100a38:	03598a63          	beq	s3,s5,100a6c <_vfprintf_r+0x12c>
  100a3c:	5752                	lw	a4,52(sp)
  100a3e:	0157a023          	sw	s5,0(a5) # ffffe000 <_stack_start+0xffeee000>
  100a42:	0177a223          	sw	s7,4(a5)
  100a46:	975e                	add	a4,a4,s7
  100a48:	da3a                	sw	a4,52(sp)
  100a4a:	5742                	lw	a4,48(sp)
  100a4c:	469d                	li	a3,7
  100a4e:	07a1                	addi	a5,a5,8
  100a50:	0705                	addi	a4,a4,1
  100a52:	d83a                	sw	a4,48(sp)
  100a54:	00e6d963          	bge	a3,a4,100a66 <_vfprintf_r+0x126>
  100a58:	1070                	addi	a2,sp,44
  100a5a:	85a2                	mv	a1,s0
  100a5c:	8526                	mv	a0,s1
  100a5e:	2dc1                	jal	10112e <__sprint_r>
  100a60:	5a051863          	bnez	a0,101010 <_vfprintf_r+0x6d0>
  100a64:	87ca                	mv	a5,s2
  100a66:	4722                	lw	a4,8(sp)
  100a68:	975e                	add	a4,a4,s7
  100a6a:	c43a                	sw	a4,8(sp)
  100a6c:	0009c703          	lbu	a4,0(s3)
  100a70:	5c070763          	beqz	a4,10103e <_vfprintf_r+0x6fe>
  100a74:	00198693          	addi	a3,s3,1
  100a78:	020103a3          	sb	zero,39(sp)
  100a7c:	4581                	li	a1,0
  100a7e:	4881                	li	a7,0
  100a80:	5c7d                	li	s8,-1
  100a82:	4981                	li	s3,0
  100a84:	4d81                	li	s11,0
  100a86:	07800e93          	li	t4,120
  100a8a:	04e00f13          	li	t5,78
  100a8e:	03900f93          	li	t6,57
  100a92:	42fd                	li	t0,31
  100a94:	43e5                	li	t2,25
  100a96:	4329                	li	t1,10
  100a98:	4e25                	li	t3,9
  100a9a:	02a00b93          	li	s7,42
  100a9e:	02900c93          	li	s9,41
  100aa2:	0006c603          	lbu	a2,0(a3) # 2000 <_stack_len>
  100aa6:	00168a93          	addi	s5,a3,1
  100aaa:	00cec863          	blt	t4,a2,100aba <_vfprintf_r+0x17a>
  100aae:	02cf4863          	blt	t5,a2,100ade <_vfprintf_r+0x19e>
  100ab2:	04cfc863          	blt	t6,a2,100b02 <_vfprintf_r+0x1c2>
  100ab6:	02c2cd63          	blt	t0,a2,100af0 <_vfprintf_r+0x1b0>
  100aba:	c199                	beqz	a1,100ac0 <_vfprintf_r+0x180>
  100abc:	031103a3          	sb	a7,39(sp)
  100ac0:	56060f63          	beqz	a2,10103e <_vfprintf_r+0x6fe>
  100ac4:	02c10c23          	sb	a2,56(sp)
  100ac8:	020103a3          	sb	zero,39(sp)
  100acc:	8cd2                	mv	s9,s4
  100ace:	a299                	j	100c14 <_vfprintf_r+0x2d4>
  100ad0:	0985                	addi	s3,s3,1
  100ad2:	bfa1                	j	100a2a <_vfprintf_r+0xea>
  100ad4:	4585                	li	a1,1
  100ad6:	02b00893          	li	a7,43
  100ada:	86d6                	mv	a3,s5
  100adc:	b7d9                	j	100aa2 <_vfprintf_r+0x162>
  100ade:	fb160693          	addi	a3,a2,-79
  100ae2:	02dce463          	bltu	s9,a3,100b0a <_vfprintf_r+0x1ca>
  100ae6:	4762                	lw	a4,24(sp)
  100ae8:	068a                	slli	a3,a3,0x2
  100aea:	96ba                	add	a3,a3,a4
  100aec:	4294                	lw	a3,0(a3)
  100aee:	8682                	jr	a3
  100af0:	fe060693          	addi	a3,a2,-32
  100af4:	00d3eb63          	bltu	t2,a3,100b0a <_vfprintf_r+0x1ca>
  100af8:	4752                	lw	a4,20(sp)
  100afa:	068a                	slli	a3,a3,0x2
  100afc:	96ba                	add	a3,a3,a4
  100afe:	4294                	lw	a3,0(a3)
  100b00:	8682                	jr	a3
  100b02:	04400693          	li	a3,68
  100b06:	10d60c63          	beq	a2,a3,100c1e <_vfprintf_r+0x2de>
  100b0a:	ddcd                	beqz	a1,100ac4 <_vfprintf_r+0x184>
  100b0c:	bf45                	j	100abc <_vfprintf_r+0x17c>
  100b0e:	c199                	beqz	a1,100b14 <_vfprintf_r+0x1d4>
  100b10:	031103a3          	sb	a7,39(sp)
  100b14:	00104b37          	lui	s6,0x104
  100b18:	970b0713          	addi	a4,s6,-1680 # 103970 <_ctype_+0x118>
  100b1c:	c63a                	sw	a4,12(sp)
  100b1e:	010df693          	andi	a3,s11,16
  100b22:	004a0c93          	addi	s9,s4,4
  100b26:	38068f63          	beqz	a3,100ec4 <_vfprintf_r+0x584>
  100b2a:	000a2683          	lw	a3,0(s4)
  100b2e:	a64d                	j	100ed0 <_vfprintf_r+0x590>
  100b30:	c199                	beqz	a1,100b36 <_vfprintf_r+0x1f6>
  100b32:	031103a3          	sb	a7,39(sp)
  100b36:	010df693          	andi	a3,s11,16
  100b3a:	004a0c93          	addi	s9,s4,4
  100b3e:	c6f5                	beqz	a3,100c2a <_vfprintf_r+0x2ea>
  100b40:	000a2683          	lw	a3,0(s4)
  100b44:	4585                	li	a1,1
  100b46:	0006d863          	bgez	a3,100b56 <_vfprintf_r+0x216>
  100b4a:	02d00613          	li	a2,45
  100b4e:	40d006b3          	neg	a3,a3
  100b52:	02c103a3          	sb	a2,39(sp)
  100b56:	567d                	li	a2,-1
  100b58:	4ecc0a63          	beq	s8,a2,10104c <_vfprintf_r+0x70c>
  100b5c:	f7fdf613          	andi	a2,s11,-129
  100b60:	4e069963          	bnez	a3,101052 <_vfprintf_r+0x712>
  100b64:	3c0c0c63          	beqz	s8,100f3c <_vfprintf_r+0x5fc>
  100b68:	4705                	li	a4,1
  100b6a:	4ee59763          	bne	a1,a4,101058 <_vfprintf_r+0x718>
  100b6e:	a661                	j	100ef6 <_vfprintf_r+0x5b6>
  100b70:	f60895e3          	bnez	a7,100ada <_vfprintf_r+0x19a>
  100b74:	4585                	li	a1,1
  100b76:	02000893          	li	a7,32
  100b7a:	b785                	j	100ada <_vfprintf_r+0x19a>
  100b7c:	001ded93          	ori	s11,s11,1
  100b80:	bfa9                	j	100ada <_vfprintf_r+0x19a>
  100b82:	000a2983          	lw	s3,0(s4)
  100b86:	0a11                	addi	s4,s4,4
  100b88:	f409d9e3          	bgez	s3,100ada <_vfprintf_r+0x19a>
  100b8c:	413009b3          	neg	s3,s3
  100b90:	004ded93          	ori	s11,s11,4
  100b94:	b799                	j	100ada <_vfprintf_r+0x19a>
  100b96:	000ac603          	lbu	a2,0(s5)
  100b9a:	001a8693          	addi	a3,s5,1
  100b9e:	03761963          	bne	a2,s7,100bd0 <_vfprintf_r+0x290>
  100ba2:	000a2c03          	lw	s8,0(s4)
  100ba6:	004a0613          	addi	a2,s4,4
  100baa:	000c5363          	bgez	s8,100bb0 <_vfprintf_r+0x270>
  100bae:	5c7d                	li	s8,-1
  100bb0:	8a32                	mv	s4,a2
  100bb2:	8ab6                	mv	s5,a3
  100bb4:	b71d                	j	100ada <_vfprintf_r+0x19a>
  100bb6:	026c0833          	mul	a6,s8,t1
  100bba:	0006c603          	lbu	a2,0(a3)
  100bbe:	0685                	addi	a3,a3,1
  100bc0:	01580c33          	add	s8,a6,s5
  100bc4:	fd060a93          	addi	s5,a2,-48
  100bc8:	ff5e77e3          	bgeu	t3,s5,100bb6 <_vfprintf_r+0x276>
  100bcc:	8ab6                	mv	s5,a3
  100bce:	bdf1                	j	100aaa <_vfprintf_r+0x16a>
  100bd0:	4c01                	li	s8,0
  100bd2:	bfcd                	j	100bc4 <_vfprintf_r+0x284>
  100bd4:	080ded93          	ori	s11,s11,128
  100bd8:	b709                	j	100ada <_vfprintf_r+0x19a>
  100bda:	86d6                	mv	a3,s5
  100bdc:	4981                	li	s3,0
  100bde:	026989b3          	mul	s3,s3,t1
  100be2:	fd060613          	addi	a2,a2,-48
  100be6:	0685                	addi	a3,a3,1
  100be8:	99b2                	add	s3,s3,a2
  100bea:	fff6c603          	lbu	a2,-1(a3)
  100bee:	fd060513          	addi	a0,a2,-48
  100bf2:	feae76e3          	bgeu	t3,a0,100bde <_vfprintf_r+0x29e>
  100bf6:	bfd9                	j	100bcc <_vfprintf_r+0x28c>
  100bf8:	040ded93          	ori	s11,s11,64
  100bfc:	bdf9                	j	100ada <_vfprintf_r+0x19a>
  100bfe:	010ded93          	ori	s11,s11,16
  100c02:	bde1                	j	100ada <_vfprintf_r+0x19a>
  100c04:	000a2683          	lw	a3,0(s4)
  100c08:	004a0c93          	addi	s9,s4,4
  100c0c:	020103a3          	sb	zero,39(sp)
  100c10:	02d10c23          	sb	a3,56(sp)
  100c14:	4c05                	li	s8,1
  100c16:	4a01                	li	s4,0
  100c18:	03810b13          	addi	s6,sp,56
  100c1c:	a86d                	j	100cd6 <_vfprintf_r+0x396>
  100c1e:	c199                	beqz	a1,100c24 <_vfprintf_r+0x2e4>
  100c20:	031103a3          	sb	a7,39(sp)
  100c24:	010ded93          	ori	s11,s11,16
  100c28:	b739                	j	100b36 <_vfprintf_r+0x1f6>
  100c2a:	040df613          	andi	a2,s11,64
  100c2e:	000a2683          	lw	a3,0(s4)
  100c32:	da09                	beqz	a2,100b44 <_vfprintf_r+0x204>
  100c34:	06c2                	slli	a3,a3,0x10
  100c36:	86c1                	srai	a3,a3,0x10
  100c38:	b731                	j	100b44 <_vfprintf_r+0x204>
  100c3a:	c199                	beqz	a1,100c40 <_vfprintf_r+0x300>
  100c3c:	031103a3          	sb	a7,39(sp)
  100c40:	010df613          	andi	a2,s11,16
  100c44:	000a2683          	lw	a3,0(s4)
  100c48:	004a0c93          	addi	s9,s4,4
  100c4c:	c601                	beqz	a2,100c54 <_vfprintf_r+0x314>
  100c4e:	4722                	lw	a4,8(sp)
  100c50:	c298                	sw	a4,0(a3)
  100c52:	a039                	j	100c60 <_vfprintf_r+0x320>
  100c54:	040df713          	andi	a4,s11,64
  100c58:	db7d                	beqz	a4,100c4e <_vfprintf_r+0x30e>
  100c5a:	4722                	lw	a4,8(sp)
  100c5c:	00e69023          	sh	a4,0(a3)
  100c60:	8a66                	mv	s4,s9
  100c62:	b3c9                	j	100a24 <_vfprintf_r+0xe4>
  100c64:	010ded93          	ori	s11,s11,16
  100c68:	010df693          	andi	a3,s11,16
  100c6c:	004a0c93          	addi	s9,s4,4
  100c70:	c681                	beqz	a3,100c78 <_vfprintf_r+0x338>
  100c72:	000a2683          	lw	a3,0(s4)
  100c76:	a031                	j	100c82 <_vfprintf_r+0x342>
  100c78:	040df693          	andi	a3,s11,64
  100c7c:	dafd                	beqz	a3,100c72 <_vfprintf_r+0x332>
  100c7e:	000a5683          	lhu	a3,0(s4)
  100c82:	4581                	li	a1,0
  100c84:	020103a3          	sb	zero,39(sp)
  100c88:	b5f9                	j	100b56 <_vfprintf_r+0x216>
  100c8a:	7661                	lui	a2,0xffff8
  100c8c:	00104b37          	lui	s6,0x104
  100c90:	83064613          	xori	a2,a2,-2000
  100c94:	970b0713          	addi	a4,s6,-1680 # 103970 <_ctype_+0x118>
  100c98:	000a2683          	lw	a3,0(s4)
  100c9c:	004a0c93          	addi	s9,s4,4
  100ca0:	002ded93          	ori	s11,s11,2
  100ca4:	02c11423          	sh	a2,40(sp)
  100ca8:	c63a                	sw	a4,12(sp)
  100caa:	4589                	li	a1,2
  100cac:	bfe1                	j	100c84 <_vfprintf_r+0x344>
  100cae:	020103a3          	sb	zero,39(sp)
  100cb2:	56fd                	li	a3,-1
  100cb4:	c83e                	sw	a5,16(sp)
  100cb6:	000a2b03          	lw	s6,0(s4)
  100cba:	004a0c93          	addi	s9,s4,4
  100cbe:	1cdc0363          	beq	s8,a3,100e84 <_vfprintf_r+0x544>
  100cc2:	8662                	mv	a2,s8
  100cc4:	4581                	li	a1,0
  100cc6:	855a                	mv	a0,s6
  100cc8:	698010ef          	jal	ra,102360 <memchr>
  100ccc:	47c2                	lw	a5,16(sp)
  100cce:	4a01                	li	s4,0
  100cd0:	c119                	beqz	a0,100cd6 <_vfprintf_r+0x396>
  100cd2:	41650c33          	sub	s8,a0,s6
  100cd6:	8bd2                	mv	s7,s4
  100cd8:	018a5363          	bge	s4,s8,100cde <_vfprintf_r+0x39e>
  100cdc:	8be2                	mv	s7,s8
  100cde:	02714683          	lbu	a3,39(sp)
  100ce2:	c291                	beqz	a3,100ce6 <_vfprintf_r+0x3a6>
  100ce4:	0b85                	addi	s7,s7,1
  100ce6:	002df713          	andi	a4,s11,2
  100cea:	c83a                	sw	a4,16(sp)
  100cec:	c311                	beqz	a4,100cf0 <_vfprintf_r+0x3b0>
  100cee:	0b89                	addi	s7,s7,2
  100cf0:	084dfd13          	andi	s10,s11,132
  100cf4:	040d1463          	bnez	s10,100d3c <_vfprintf_r+0x3fc>
  100cf8:	417986b3          	sub	a3,s3,s7
  100cfc:	04d05063          	blez	a3,100d3c <_vfprintf_r+0x3fc>
  100d00:	00103337          	lui	t1,0x103
  100d04:	4e41                	li	t3,16
  100d06:	70830313          	addi	t1,t1,1800 # 103708 <blanks.1>
  100d0a:	4e9d                	li	t4,7
  100d0c:	5642                	lw	a2,48(sp)
  100d0e:	0067a023          	sw	t1,0(a5)
  100d12:	55d2                	lw	a1,52(sp)
  100d14:	0605                	addi	a2,a2,1
  100d16:	00878513          	addi	a0,a5,8
  100d1a:	22de4d63          	blt	t3,a3,100f54 <_vfprintf_r+0x614>
  100d1e:	c3d4                	sw	a3,4(a5)
  100d20:	96ae                	add	a3,a3,a1
  100d22:	da36                	sw	a3,52(sp)
  100d24:	d832                	sw	a2,48(sp)
  100d26:	469d                	li	a3,7
  100d28:	87aa                	mv	a5,a0
  100d2a:	00c6d963          	bge	a3,a2,100d3c <_vfprintf_r+0x3fc>
  100d2e:	1070                	addi	a2,sp,44
  100d30:	85a2                	mv	a1,s0
  100d32:	8526                	mv	a0,s1
  100d34:	2eed                	jal	10112e <__sprint_r>
  100d36:	2c051d63          	bnez	a0,101010 <_vfprintf_r+0x6d0>
  100d3a:	87ca                	mv	a5,s2
  100d3c:	02714683          	lbu	a3,39(sp)
  100d40:	c69d                	beqz	a3,100d6e <_vfprintf_r+0x42e>
  100d42:	5652                	lw	a2,52(sp)
  100d44:	56c2                	lw	a3,48(sp)
  100d46:	02710593          	addi	a1,sp,39
  100d4a:	c38c                	sw	a1,0(a5)
  100d4c:	0605                	addi	a2,a2,1
  100d4e:	0685                	addi	a3,a3,1
  100d50:	4585                	li	a1,1
  100d52:	c3cc                	sw	a1,4(a5)
  100d54:	da32                	sw	a2,52(sp)
  100d56:	d836                	sw	a3,48(sp)
  100d58:	461d                	li	a2,7
  100d5a:	07a1                	addi	a5,a5,8
  100d5c:	00d65963          	bge	a2,a3,100d6e <_vfprintf_r+0x42e>
  100d60:	1070                	addi	a2,sp,44
  100d62:	85a2                	mv	a1,s0
  100d64:	8526                	mv	a0,s1
  100d66:	26e1                	jal	10112e <__sprint_r>
  100d68:	2a051463          	bnez	a0,101010 <_vfprintf_r+0x6d0>
  100d6c:	87ca                	mv	a5,s2
  100d6e:	4742                	lw	a4,16(sp)
  100d70:	c715                	beqz	a4,100d9c <_vfprintf_r+0x45c>
  100d72:	5652                	lw	a2,52(sp)
  100d74:	56c2                	lw	a3,48(sp)
  100d76:	102c                	addi	a1,sp,40
  100d78:	c38c                	sw	a1,0(a5)
  100d7a:	0609                	addi	a2,a2,2
  100d7c:	0685                	addi	a3,a3,1
  100d7e:	4589                	li	a1,2
  100d80:	c3cc                	sw	a1,4(a5)
  100d82:	da32                	sw	a2,52(sp)
  100d84:	d836                	sw	a3,48(sp)
  100d86:	461d                	li	a2,7
  100d88:	07a1                	addi	a5,a5,8
  100d8a:	00d65963          	bge	a2,a3,100d9c <_vfprintf_r+0x45c>
  100d8e:	1070                	addi	a2,sp,44
  100d90:	85a2                	mv	a1,s0
  100d92:	8526                	mv	a0,s1
  100d94:	2e69                	jal	10112e <__sprint_r>
  100d96:	26051d63          	bnez	a0,101010 <_vfprintf_r+0x6d0>
  100d9a:	87ca                	mv	a5,s2
  100d9c:	08000693          	li	a3,128
  100da0:	04dd1463          	bne	s10,a3,100de8 <_vfprintf_r+0x4a8>
  100da4:	41798d33          	sub	s10,s3,s7
  100da8:	05a05063          	blez	s10,100de8 <_vfprintf_r+0x4a8>
  100dac:	00103737          	lui	a4,0x103
  100db0:	4341                	li	t1,16
  100db2:	71870713          	addi	a4,a4,1816 # 103718 <zeroes.0>
  100db6:	4e1d                	li	t3,7
  100db8:	56c2                	lw	a3,48(sp)
  100dba:	c398                	sw	a4,0(a5)
  100dbc:	5652                	lw	a2,52(sp)
  100dbe:	0685                	addi	a3,a3,1
  100dc0:	00878593          	addi	a1,a5,8
  100dc4:	1da34063          	blt	t1,s10,100f84 <_vfprintf_r+0x644>
  100dc8:	01a7a223          	sw	s10,4(a5)
  100dcc:	9d32                	add	s10,s10,a2
  100dce:	da6a                	sw	s10,52(sp)
  100dd0:	d836                	sw	a3,48(sp)
  100dd2:	461d                	li	a2,7
  100dd4:	87ae                	mv	a5,a1
  100dd6:	00d65963          	bge	a2,a3,100de8 <_vfprintf_r+0x4a8>
  100dda:	1070                	addi	a2,sp,44
  100ddc:	85a2                	mv	a1,s0
  100dde:	8526                	mv	a0,s1
  100de0:	26b9                	jal	10112e <__sprint_r>
  100de2:	22051763          	bnez	a0,101010 <_vfprintf_r+0x6d0>
  100de6:	87ca                	mv	a5,s2
  100de8:	418a0a33          	sub	s4,s4,s8
  100dec:	05405163          	blez	s4,100e2e <_vfprintf_r+0x4ee>
  100df0:	001036b7          	lui	a3,0x103
  100df4:	4741                	li	a4,16
  100df6:	71868d13          	addi	s10,a3,1816 # 103718 <zeroes.0>
  100dfa:	431d                	li	t1,7
  100dfc:	56c2                	lw	a3,48(sp)
  100dfe:	01a7a023          	sw	s10,0(a5)
  100e02:	5652                	lw	a2,52(sp)
  100e04:	0685                	addi	a3,a3,1
  100e06:	00878593          	addi	a1,a5,8
  100e0a:	1b474363          	blt	a4,s4,100fb0 <_vfprintf_r+0x670>
  100e0e:	0147a223          	sw	s4,4(a5)
  100e12:	9a32                	add	s4,s4,a2
  100e14:	da52                	sw	s4,52(sp)
  100e16:	d836                	sw	a3,48(sp)
  100e18:	461d                	li	a2,7
  100e1a:	87ae                	mv	a5,a1
  100e1c:	00d65963          	bge	a2,a3,100e2e <_vfprintf_r+0x4ee>
  100e20:	1070                	addi	a2,sp,44
  100e22:	85a2                	mv	a1,s0
  100e24:	8526                	mv	a0,s1
  100e26:	2621                	jal	10112e <__sprint_r>
  100e28:	1e051463          	bnez	a0,101010 <_vfprintf_r+0x6d0>
  100e2c:	87ca                	mv	a5,s2
  100e2e:	5552                	lw	a0,52(sp)
  100e30:	56c2                	lw	a3,48(sp)
  100e32:	0167a023          	sw	s6,0(a5)
  100e36:	01850833          	add	a6,a0,s8
  100e3a:	0685                	addi	a3,a3,1
  100e3c:	0187a223          	sw	s8,4(a5)
  100e40:	da42                	sw	a6,52(sp)
  100e42:	d836                	sw	a3,48(sp)
  100e44:	461d                	li	a2,7
  100e46:	07a1                	addi	a5,a5,8
  100e48:	00d65963          	bge	a2,a3,100e5a <_vfprintf_r+0x51a>
  100e4c:	1070                	addi	a2,sp,44
  100e4e:	85a2                	mv	a1,s0
  100e50:	8526                	mv	a0,s1
  100e52:	2cf1                	jal	10112e <__sprint_r>
  100e54:	1a051e63          	bnez	a0,101010 <_vfprintf_r+0x6d0>
  100e58:	87ca                	mv	a5,s2
  100e5a:	004df713          	andi	a4,s11,4
  100e5e:	16071a63          	bnez	a4,100fd2 <_vfprintf_r+0x692>
  100e62:	0179d363          	bge	s3,s7,100e68 <_vfprintf_r+0x528>
  100e66:	89de                	mv	s3,s7
  100e68:	47a2                	lw	a5,8(sp)
  100e6a:	97ce                	add	a5,a5,s3
  100e6c:	c43e                	sw	a5,8(sp)
  100e6e:	57d2                	lw	a5,52(sp)
  100e70:	c799                	beqz	a5,100e7e <_vfprintf_r+0x53e>
  100e72:	1070                	addi	a2,sp,44
  100e74:	85a2                	mv	a1,s0
  100e76:	8526                	mv	a0,s1
  100e78:	2c5d                	jal	10112e <__sprint_r>
  100e7a:	18051b63          	bnez	a0,101010 <_vfprintf_r+0x6d0>
  100e7e:	d802                	sw	zero,48(sp)
  100e80:	87ca                	mv	a5,s2
  100e82:	bbf9                	j	100c60 <_vfprintf_r+0x320>
  100e84:	855a                	mv	a0,s6
  100e86:	6e4010ef          	jal	ra,10256a <strlen>
  100e8a:	47c2                	lw	a5,16(sp)
  100e8c:	8c2a                	mv	s8,a0
  100e8e:	4a01                	li	s4,0
  100e90:	b599                	j	100cd6 <_vfprintf_r+0x396>
  100e92:	010ded93          	ori	s11,s11,16
  100e96:	010df693          	andi	a3,s11,16
  100e9a:	004a0c93          	addi	s9,s4,4
  100e9e:	c681                	beqz	a3,100ea6 <_vfprintf_r+0x566>
  100ea0:	000a2683          	lw	a3,0(s4)
  100ea4:	a031                	j	100eb0 <_vfprintf_r+0x570>
  100ea6:	040df693          	andi	a3,s11,64
  100eaa:	dafd                	beqz	a3,100ea0 <_vfprintf_r+0x560>
  100eac:	000a5683          	lhu	a3,0(s4)
  100eb0:	4585                	li	a1,1
  100eb2:	bbc9                	j	100c84 <_vfprintf_r+0x344>
  100eb4:	c199                	beqz	a1,100eba <_vfprintf_r+0x57a>
  100eb6:	031103a3          	sb	a7,39(sp)
  100eba:	00104b37          	lui	s6,0x104
  100ebe:	95cb0713          	addi	a4,s6,-1700 # 10395c <_ctype_+0x104>
  100ec2:	b9a9                	j	100b1c <_vfprintf_r+0x1dc>
  100ec4:	040df693          	andi	a3,s11,64
  100ec8:	c60681e3          	beqz	a3,100b2a <_vfprintf_r+0x1ea>
  100ecc:	000a5683          	lhu	a3,0(s4)
  100ed0:	001df513          	andi	a0,s11,1
  100ed4:	4589                	li	a1,2
  100ed6:	da0507e3          	beqz	a0,100c84 <_vfprintf_r+0x344>
  100eda:	da0685e3          	beqz	a3,100c84 <_vfprintf_r+0x344>
  100ede:	03000513          	li	a0,48
  100ee2:	02a10423          	sb	a0,40(sp)
  100ee6:	02c104a3          	sb	a2,41(sp)
  100eea:	002ded93          	ori	s11,s11,2
  100eee:	bb59                	j	100c84 <_vfprintf_r+0x344>
  100ef0:	4725                	li	a4,9
  100ef2:	00d76963          	bltu	a4,a3,100f04 <_vfprintf_r+0x5c4>
  100ef6:	03068693          	addi	a3,a3,48
  100efa:	04d10fa3          	sb	a3,95(sp)
  100efe:	05f10b13          	addi	s6,sp,95
  100f02:	a261                	j	10108a <_vfprintf_r+0x74a>
  100f04:	8b4a                	mv	s6,s2
  100f06:	45a9                	li	a1,10
  100f08:	4525                	li	a0,9
  100f0a:	02b6f733          	remu	a4,a3,a1
  100f0e:	1b7d                	addi	s6,s6,-1
  100f10:	03070713          	addi	a4,a4,48
  100f14:	00eb0023          	sb	a4,0(s6)
  100f18:	8736                	mv	a4,a3
  100f1a:	02b6d6b3          	divu	a3,a3,a1
  100f1e:	fee566e3          	bltu	a0,a4,100f0a <_vfprintf_r+0x5ca>
  100f22:	a2a5                	j	10108a <_vfprintf_r+0x74a>
  100f24:	45b2                	lw	a1,12(sp)
  100f26:	00f6f713          	andi	a4,a3,15
  100f2a:	1b7d                	addi	s6,s6,-1
  100f2c:	972e                	add	a4,a4,a1
  100f2e:	00074703          	lbu	a4,0(a4)
  100f32:	8291                	srli	a3,a3,0x4
  100f34:	00eb0023          	sb	a4,0(s6)
  100f38:	f6f5                	bnez	a3,100f24 <_vfprintf_r+0x5e4>
  100f3a:	aa81                	j	10108a <_vfprintf_r+0x74a>
  100f3c:	8b4a                	mv	s6,s2
  100f3e:	14059663          	bnez	a1,10108a <_vfprintf_r+0x74a>
  100f42:	001df713          	andi	a4,s11,1
  100f46:	14070263          	beqz	a4,10108a <_vfprintf_r+0x74a>
  100f4a:	03000713          	li	a4,48
  100f4e:	04e10fa3          	sb	a4,95(sp)
  100f52:	b775                	j	100efe <_vfprintf_r+0x5be>
  100f54:	05c1                	addi	a1,a1,16
  100f56:	01c7a223          	sw	t3,4(a5)
  100f5a:	da2e                	sw	a1,52(sp)
  100f5c:	d832                	sw	a2,48(sp)
  100f5e:	02ced063          	bge	t4,a2,100f7e <_vfprintf_r+0x63e>
  100f62:	1070                	addi	a2,sp,44
  100f64:	85a2                	mv	a1,s0
  100f66:	8526                	mv	a0,s1
  100f68:	ce36                	sw	a3,28(sp)
  100f6a:	22d1                	jal	10112e <__sprint_r>
  100f6c:	e155                	bnez	a0,101010 <_vfprintf_r+0x6d0>
  100f6e:	46f2                	lw	a3,28(sp)
  100f70:	001037b7          	lui	a5,0x103
  100f74:	854a                	mv	a0,s2
  100f76:	4e9d                	li	t4,7
  100f78:	70878313          	addi	t1,a5,1800 # 103708 <blanks.1>
  100f7c:	4e41                	li	t3,16
  100f7e:	16c1                	addi	a3,a3,-16
  100f80:	87aa                	mv	a5,a0
  100f82:	b369                	j	100d0c <_vfprintf_r+0x3cc>
  100f84:	0641                	addi	a2,a2,16
  100f86:	0067a223          	sw	t1,4(a5)
  100f8a:	da32                	sw	a2,52(sp)
  100f8c:	d836                	sw	a3,48(sp)
  100f8e:	00de5e63          	bge	t3,a3,100faa <_vfprintf_r+0x66a>
  100f92:	1070                	addi	a2,sp,44
  100f94:	85a2                	mv	a1,s0
  100f96:	8526                	mv	a0,s1
  100f98:	2a59                	jal	10112e <__sprint_r>
  100f9a:	e93d                	bnez	a0,101010 <_vfprintf_r+0x6d0>
  100f9c:	001037b7          	lui	a5,0x103
  100fa0:	85ca                	mv	a1,s2
  100fa2:	4e1d                	li	t3,7
  100fa4:	71878713          	addi	a4,a5,1816 # 103718 <zeroes.0>
  100fa8:	4341                	li	t1,16
  100faa:	1d41                	addi	s10,s10,-16
  100fac:	87ae                	mv	a5,a1
  100fae:	b529                	j	100db8 <_vfprintf_r+0x478>
  100fb0:	0641                	addi	a2,a2,16
  100fb2:	c3d8                	sw	a4,4(a5)
  100fb4:	da32                	sw	a2,52(sp)
  100fb6:	d836                	sw	a3,48(sp)
  100fb8:	00d35a63          	bge	t1,a3,100fcc <_vfprintf_r+0x68c>
  100fbc:	1070                	addi	a2,sp,44
  100fbe:	85a2                	mv	a1,s0
  100fc0:	8526                	mv	a0,s1
  100fc2:	22b5                	jal	10112e <__sprint_r>
  100fc4:	e531                	bnez	a0,101010 <_vfprintf_r+0x6d0>
  100fc6:	85ca                	mv	a1,s2
  100fc8:	431d                	li	t1,7
  100fca:	4741                	li	a4,16
  100fcc:	1a41                	addi	s4,s4,-16
  100fce:	87ae                	mv	a5,a1
  100fd0:	b535                	j	100dfc <_vfprintf_r+0x4bc>
  100fd2:	41798a33          	sub	s4,s3,s7
  100fd6:	e94056e3          	blez	s4,100e62 <_vfprintf_r+0x522>
  100fda:	00103d37          	lui	s10,0x103
  100fde:	4dc1                	li	s11,16
  100fe0:	708d0d13          	addi	s10,s10,1800 # 103708 <blanks.1>
  100fe4:	4c1d                	li	s8,7
  100fe6:	5742                	lw	a4,48(sp)
  100fe8:	01a7a023          	sw	s10,0(a5)
  100fec:	56d2                	lw	a3,52(sp)
  100fee:	0705                	addi	a4,a4,1
  100ff0:	034dc763          	blt	s11,s4,10101e <_vfprintf_r+0x6de>
  100ff4:	0147a223          	sw	s4,4(a5)
  100ff8:	9a36                	add	s4,s4,a3
  100ffa:	da52                	sw	s4,52(sp)
  100ffc:	d83a                	sw	a4,48(sp)
  100ffe:	479d                	li	a5,7
  101000:	e6e7d1e3          	bge	a5,a4,100e62 <_vfprintf_r+0x522>
  101004:	1070                	addi	a2,sp,44
  101006:	85a2                	mv	a1,s0
  101008:	8526                	mv	a0,s1
  10100a:	2215                	jal	10112e <__sprint_r>
  10100c:	e4050be3          	beqz	a0,100e62 <_vfprintf_r+0x522>
  101010:	00c45783          	lhu	a5,12(s0)
  101014:	0407f793          	andi	a5,a5,64
  101018:	9c0784e3          	beqz	a5,1009e0 <_vfprintf_r+0xa0>
  10101c:	b2c1                	j	1009dc <_vfprintf_r+0x9c>
  10101e:	06c1                	addi	a3,a3,16
  101020:	01b7a223          	sw	s11,4(a5)
  101024:	da36                	sw	a3,52(sp)
  101026:	d83a                	sw	a4,48(sp)
  101028:	07a1                	addi	a5,a5,8
  10102a:	00ec5863          	bge	s8,a4,10103a <_vfprintf_r+0x6fa>
  10102e:	1070                	addi	a2,sp,44
  101030:	85a2                	mv	a1,s0
  101032:	8526                	mv	a0,s1
  101034:	28ed                	jal	10112e <__sprint_r>
  101036:	fd69                	bnez	a0,101010 <_vfprintf_r+0x6d0>
  101038:	87ca                	mv	a5,s2
  10103a:	1a41                	addi	s4,s4,-16
  10103c:	b76d                	j	100fe6 <_vfprintf_r+0x6a6>
  10103e:	57d2                	lw	a5,52(sp)
  101040:	dbe1                	beqz	a5,101010 <_vfprintf_r+0x6d0>
  101042:	1070                	addi	a2,sp,44
  101044:	85a2                	mv	a1,s0
  101046:	8526                	mv	a0,s1
  101048:	20dd                	jal	10112e <__sprint_r>
  10104a:	b7d9                	j	101010 <_vfprintf_r+0x6d0>
  10104c:	866e                	mv	a2,s11
  10104e:	b0068de3          	beqz	a3,100b68 <_vfprintf_r+0x228>
  101052:	4705                	li	a4,1
  101054:	e8e58ee3          	beq	a1,a4,100ef0 <_vfprintf_r+0x5b0>
  101058:	4709                	li	a4,2
  10105a:	8b4a                	mv	s6,s2
  10105c:	ece584e3          	beq	a1,a4,100f24 <_vfprintf_r+0x5e4>
  101060:	0076f713          	andi	a4,a3,7
  101064:	85da                	mv	a1,s6
  101066:	03070713          	addi	a4,a4,48
  10106a:	828d                	srli	a3,a3,0x3
  10106c:	feeb0fa3          	sb	a4,-1(s6)
  101070:	1b7d                	addi	s6,s6,-1
  101072:	f6fd                	bnez	a3,101060 <_vfprintf_r+0x720>
  101074:	00167693          	andi	a3,a2,1
  101078:	ca89                	beqz	a3,10108a <_vfprintf_r+0x74a>
  10107a:	03000693          	li	a3,48
  10107e:	00d70663          	beq	a4,a3,10108a <_vfprintf_r+0x74a>
  101082:	fedb0fa3          	sb	a3,-1(s6)
  101086:	ffe58b13          	addi	s6,a1,-2
  10108a:	8a62                	mv	s4,s8
  10108c:	8db2                	mv	s11,a2
  10108e:	41690c33          	sub	s8,s2,s6
  101092:	b191                	j	100cd6 <_vfprintf_r+0x396>

00101094 <vfprintf>:
  101094:	001047b7          	lui	a5,0x104
  101098:	86b2                	mv	a3,a2
  10109a:	862e                	mv	a2,a1
  10109c:	85aa                	mv	a1,a0
  10109e:	99c7a503          	lw	a0,-1636(a5) # 10399c <_impure_ptr>
  1010a2:	b879                	j	100940 <_vfprintf_r>

001010a4 <__sbprintf>:
  1010a4:	00c5d783          	lhu	a5,12(a1)
  1010a8:	b8010113          	addi	sp,sp,-1152
  1010ac:	46812c23          	sw	s0,1144(sp)
  1010b0:	9bf5                	andi	a5,a5,-3
  1010b2:	00f11a23          	sh	a5,20(sp)
  1010b6:	51fc                	lw	a5,100(a1)
  1010b8:	842e                	mv	s0,a1
  1010ba:	46912a23          	sw	s1,1140(sp)
  1010be:	d6be                	sw	a5,108(sp)
  1010c0:	00e5d783          	lhu	a5,14(a1)
  1010c4:	47212823          	sw	s2,1136(sp)
  1010c8:	46112e23          	sw	ra,1148(sp)
  1010cc:	00f11b23          	sh	a5,22(sp)
  1010d0:	4ddc                	lw	a5,28(a1)
  1010d2:	892a                	mv	s2,a0
  1010d4:	d002                	sw	zero,32(sp)
  1010d6:	d23e                	sw	a5,36(sp)
  1010d8:	51dc                	lw	a5,36(a1)
  1010da:	002c                	addi	a1,sp,8
  1010dc:	d63e                	sw	a5,44(sp)
  1010de:	189c                	addi	a5,sp,112
  1010e0:	c43e                	sw	a5,8(sp)
  1010e2:	cc3e                	sw	a5,24(sp)
  1010e4:	40000793          	li	a5,1024
  1010e8:	c83e                	sw	a5,16(sp)
  1010ea:	ce3e                	sw	a5,28(sp)
  1010ec:	3891                	jal	100940 <_vfprintf_r>
  1010ee:	84aa                	mv	s1,a0
  1010f0:	00054863          	bltz	a0,101100 <__sbprintf+0x5c>
  1010f4:	002c                	addi	a1,sp,8
  1010f6:	854a                	mv	a0,s2
  1010f8:	227000ef          	jal	ra,101b1e <_fflush_r>
  1010fc:	c111                	beqz	a0,101100 <__sbprintf+0x5c>
  1010fe:	54fd                	li	s1,-1
  101100:	01415783          	lhu	a5,20(sp)
  101104:	0407f793          	andi	a5,a5,64
  101108:	c799                	beqz	a5,101116 <__sbprintf+0x72>
  10110a:	00c45783          	lhu	a5,12(s0)
  10110e:	0407e793          	ori	a5,a5,64
  101112:	00f41623          	sh	a5,12(s0)
  101116:	47c12083          	lw	ra,1148(sp)
  10111a:	47812403          	lw	s0,1144(sp)
  10111e:	47012903          	lw	s2,1136(sp)
  101122:	8526                	mv	a0,s1
  101124:	47412483          	lw	s1,1140(sp)
  101128:	48010113          	addi	sp,sp,1152
  10112c:	8082                	ret

0010112e <__sprint_r>:
  10112e:	461c                	lw	a5,8(a2)
  101130:	7179                	addi	sp,sp,-48
  101132:	d422                	sw	s0,40(sp)
  101134:	d606                	sw	ra,44(sp)
  101136:	d226                	sw	s1,36(sp)
  101138:	d04a                	sw	s2,32(sp)
  10113a:	ce4e                	sw	s3,28(sp)
  10113c:	cc52                	sw	s4,24(sp)
  10113e:	ca56                	sw	s5,20(sp)
  101140:	c85a                	sw	s6,16(sp)
  101142:	c65e                	sw	s7,12(sp)
  101144:	c462                	sw	s8,8(sp)
  101146:	8432                	mv	s0,a2
  101148:	e385                	bnez	a5,101168 <__sprint_r+0x3a>
  10114a:	00062223          	sw	zero,4(a2) # ffff8004 <_stack_start+0xffee8004>
  10114e:	4501                	li	a0,0
  101150:	50b2                	lw	ra,44(sp)
  101152:	5422                	lw	s0,40(sp)
  101154:	5492                	lw	s1,36(sp)
  101156:	5902                	lw	s2,32(sp)
  101158:	49f2                	lw	s3,28(sp)
  10115a:	4a62                	lw	s4,24(sp)
  10115c:	4ad2                	lw	s5,20(sp)
  10115e:	4b42                	lw	s6,16(sp)
  101160:	4bb2                	lw	s7,12(sp)
  101162:	4c22                	lw	s8,8(sp)
  101164:	6145                	addi	sp,sp,48
  101166:	8082                	ret
  101168:	51f8                	lw	a4,100(a1)
  10116a:	6789                	lui	a5,0x2
  10116c:	89ae                	mv	s3,a1
  10116e:	8ff9                	and	a5,a5,a4
  101170:	c7b9                	beqz	a5,1011be <__sprint_r+0x90>
  101172:	4204                	lw	s1,0(a2)
  101174:	8aaa                	mv	s5,a0
  101176:	5b7d                	li	s6,-1
  101178:	0044a903          	lw	s2,4(s1)
  10117c:	0004ac03          	lw	s8,0(s1)
  101180:	4a01                	li	s4,0
  101182:	00295b93          	srli	s7,s2,0x2
  101186:	037a4063          	blt	s4,s7,1011a6 <__sprint_r+0x78>
  10118a:	441c                	lw	a5,8(s0)
  10118c:	ffc97913          	andi	s2,s2,-4
  101190:	04a1                	addi	s1,s1,8
  101192:	412787b3          	sub	a5,a5,s2
  101196:	c41c                	sw	a5,8(s0)
  101198:	f3e5                	bnez	a5,101178 <__sprint_r+0x4a>
  10119a:	4501                	li	a0,0
  10119c:	00042423          	sw	zero,8(s0)
  1011a0:	00042223          	sw	zero,4(s0)
  1011a4:	b775                	j	101150 <__sprint_r+0x22>
  1011a6:	002a1793          	slli	a5,s4,0x2
  1011aa:	97e2                	add	a5,a5,s8
  1011ac:	438c                	lw	a1,0(a5)
  1011ae:	864e                	mv	a2,s3
  1011b0:	8556                	mv	a0,s5
  1011b2:	162010ef          	jal	ra,102314 <_fputwc_r>
  1011b6:	01650763          	beq	a0,s6,1011c4 <__sprint_r+0x96>
  1011ba:	0a05                	addi	s4,s4,1
  1011bc:	b7e9                	j	101186 <__sprint_r+0x58>
  1011be:	3dd000ef          	jal	ra,101d9a <__sfvwrite_r>
  1011c2:	bfe9                	j	10119c <__sprint_r+0x6e>
  1011c4:	557d                	li	a0,-1
  1011c6:	bfd9                	j	10119c <__sprint_r+0x6e>

001011c8 <_vfiprintf_r>:
  1011c8:	7115                	addi	sp,sp,-224
  1011ca:	cda2                	sw	s0,216(sp)
  1011cc:	cba6                	sw	s1,212(sp)
  1011ce:	c5d2                	sw	s4,200(sp)
  1011d0:	c3d6                	sw	s5,196(sp)
  1011d2:	cf86                	sw	ra,220(sp)
  1011d4:	c9ca                	sw	s2,208(sp)
  1011d6:	c7ce                	sw	s3,204(sp)
  1011d8:	c1da                	sw	s6,192(sp)
  1011da:	df5e                	sw	s7,188(sp)
  1011dc:	dd62                	sw	s8,184(sp)
  1011de:	db66                	sw	s9,180(sp)
  1011e0:	d96a                	sw	s10,176(sp)
  1011e2:	d76e                	sw	s11,172(sp)
  1011e4:	84aa                	mv	s1,a0
  1011e6:	842e                	mv	s0,a1
  1011e8:	8ab2                	mv	s5,a2
  1011ea:	8a36                	mv	s4,a3
  1011ec:	c509                	beqz	a0,1011f6 <_vfiprintf_r+0x2e>
  1011ee:	595c                	lw	a5,52(a0)
  1011f0:	e399                	bnez	a5,1011f6 <_vfiprintf_r+0x2e>
  1011f2:	361000ef          	jal	ra,101d52 <__sinit>
  1011f6:	00c41783          	lh	a5,12(s0)
  1011fa:	01279713          	slli	a4,a5,0x12
  1011fe:	00074b63          	bltz	a4,101214 <_vfiprintf_r+0x4c>
  101202:	6689                	lui	a3,0x2
  101204:	5078                	lw	a4,100(s0)
  101206:	8fd5                	or	a5,a5,a3
  101208:	00f41623          	sh	a5,12(s0)
  10120c:	77f9                	lui	a5,0xffffe
  10120e:	17fd                	addi	a5,a5,-1
  101210:	8ff9                	and	a5,a5,a4
  101212:	d07c                	sw	a5,100(s0)
  101214:	00c45783          	lhu	a5,12(s0)
  101218:	8ba1                	andi	a5,a5,8
  10121a:	c3a1                	beqz	a5,10125a <_vfiprintf_r+0x92>
  10121c:	481c                	lw	a5,16(s0)
  10121e:	cf95                	beqz	a5,10125a <_vfiprintf_r+0x92>
  101220:	00c45783          	lhu	a5,12(s0)
  101224:	4729                	li	a4,10
  101226:	8be9                	andi	a5,a5,26
  101228:	06e79063          	bne	a5,a4,101288 <_vfiprintf_r+0xc0>
  10122c:	00e41783          	lh	a5,14(s0)
  101230:	0407cc63          	bltz	a5,101288 <_vfiprintf_r+0xc0>
  101234:	85a2                	mv	a1,s0
  101236:	446e                	lw	s0,216(sp)
  101238:	40fe                	lw	ra,220(sp)
  10123a:	494e                	lw	s2,208(sp)
  10123c:	49be                	lw	s3,204(sp)
  10123e:	4b0e                	lw	s6,192(sp)
  101240:	5bfa                	lw	s7,188(sp)
  101242:	5c6a                	lw	s8,184(sp)
  101244:	5cda                	lw	s9,180(sp)
  101246:	5d4a                	lw	s10,176(sp)
  101248:	5dba                	lw	s11,172(sp)
  10124a:	86d2                	mv	a3,s4
  10124c:	8656                	mv	a2,s5
  10124e:	4a2e                	lw	s4,200(sp)
  101250:	4a9e                	lw	s5,196(sp)
  101252:	8526                	mv	a0,s1
  101254:	44de                	lw	s1,212(sp)
  101256:	612d                	addi	sp,sp,224
  101258:	add1                	j	10192c <__sbprintf>
  10125a:	85a2                	mv	a1,s0
  10125c:	8526                	mv	a0,s1
  10125e:	72d000ef          	jal	ra,10218a <__swsetup_r>
  101262:	dd5d                	beqz	a0,101220 <_vfiprintf_r+0x58>
  101264:	57fd                	li	a5,-1
  101266:	c43e                	sw	a5,8(sp)
  101268:	40fe                	lw	ra,220(sp)
  10126a:	446e                	lw	s0,216(sp)
  10126c:	4522                	lw	a0,8(sp)
  10126e:	44de                	lw	s1,212(sp)
  101270:	494e                	lw	s2,208(sp)
  101272:	49be                	lw	s3,204(sp)
  101274:	4a2e                	lw	s4,200(sp)
  101276:	4a9e                	lw	s5,196(sp)
  101278:	4b0e                	lw	s6,192(sp)
  10127a:	5bfa                	lw	s7,188(sp)
  10127c:	5c6a                	lw	s8,184(sp)
  10127e:	5cda                	lw	s9,180(sp)
  101280:	5d4a                	lw	s10,176(sp)
  101282:	5dba                	lw	s11,172(sp)
  101284:	612d                	addi	sp,sp,224
  101286:	8082                	ret
  101288:	00103737          	lui	a4,0x103
  10128c:	7d070713          	addi	a4,a4,2000 # 1037d0 <zeroes.0+0xb8>
  101290:	ca3a                	sw	a4,20(sp)
  101292:	00103737          	lui	a4,0x103
  101296:	06010913          	addi	s2,sp,96
  10129a:	72870713          	addi	a4,a4,1832 # 103728 <zeroes.0+0x10>
  10129e:	d64a                	sw	s2,44(sp)
  1012a0:	da02                	sw	zero,52(sp)
  1012a2:	d802                	sw	zero,48(sp)
  1012a4:	87ca                	mv	a5,s2
  1012a6:	c602                	sw	zero,12(sp)
  1012a8:	c402                	sw	zero,8(sp)
  1012aa:	cc3a                	sw	a4,24(sp)
  1012ac:	89d6                	mv	s3,s5
  1012ae:	02500693          	li	a3,37
  1012b2:	0009c703          	lbu	a4,0(s3)
  1012b6:	c319                	beqz	a4,1012bc <_vfiprintf_r+0xf4>
  1012b8:	0ad71063          	bne	a4,a3,101358 <_vfiprintf_r+0x190>
  1012bc:	41598bb3          	sub	s7,s3,s5
  1012c0:	03598a63          	beq	s3,s5,1012f4 <_vfiprintf_r+0x12c>
  1012c4:	5752                	lw	a4,52(sp)
  1012c6:	0157a023          	sw	s5,0(a5) # ffffe000 <_stack_start+0xffeee000>
  1012ca:	0177a223          	sw	s7,4(a5)
  1012ce:	975e                	add	a4,a4,s7
  1012d0:	da3a                	sw	a4,52(sp)
  1012d2:	5742                	lw	a4,48(sp)
  1012d4:	469d                	li	a3,7
  1012d6:	07a1                	addi	a5,a5,8
  1012d8:	0705                	addi	a4,a4,1
  1012da:	d83a                	sw	a4,48(sp)
  1012dc:	00e6d963          	bge	a3,a4,1012ee <_vfiprintf_r+0x126>
  1012e0:	1070                	addi	a2,sp,44
  1012e2:	85a2                	mv	a1,s0
  1012e4:	8526                	mv	a0,s1
  1012e6:	35a1                	jal	10112e <__sprint_r>
  1012e8:	5a051863          	bnez	a0,101898 <_vfiprintf_r+0x6d0>
  1012ec:	87ca                	mv	a5,s2
  1012ee:	4722                	lw	a4,8(sp)
  1012f0:	975e                	add	a4,a4,s7
  1012f2:	c43a                	sw	a4,8(sp)
  1012f4:	0009c703          	lbu	a4,0(s3)
  1012f8:	5c070763          	beqz	a4,1018c6 <_vfiprintf_r+0x6fe>
  1012fc:	00198693          	addi	a3,s3,1
  101300:	020103a3          	sb	zero,39(sp)
  101304:	4581                	li	a1,0
  101306:	4881                	li	a7,0
  101308:	5c7d                	li	s8,-1
  10130a:	4981                	li	s3,0
  10130c:	4d81                	li	s11,0
  10130e:	07800e93          	li	t4,120
  101312:	04e00f13          	li	t5,78
  101316:	03900f93          	li	t6,57
  10131a:	42fd                	li	t0,31
  10131c:	43e5                	li	t2,25
  10131e:	4329                	li	t1,10
  101320:	4e25                	li	t3,9
  101322:	02a00b93          	li	s7,42
  101326:	02900c93          	li	s9,41
  10132a:	0006c603          	lbu	a2,0(a3) # 2000 <_stack_len>
  10132e:	00168a93          	addi	s5,a3,1
  101332:	00cec863          	blt	t4,a2,101342 <_vfiprintf_r+0x17a>
  101336:	02cf4863          	blt	t5,a2,101366 <_vfiprintf_r+0x19e>
  10133a:	04cfc863          	blt	t6,a2,10138a <_vfiprintf_r+0x1c2>
  10133e:	02c2cd63          	blt	t0,a2,101378 <_vfiprintf_r+0x1b0>
  101342:	c199                	beqz	a1,101348 <_vfiprintf_r+0x180>
  101344:	031103a3          	sb	a7,39(sp)
  101348:	56060f63          	beqz	a2,1018c6 <_vfiprintf_r+0x6fe>
  10134c:	02c10c23          	sb	a2,56(sp)
  101350:	020103a3          	sb	zero,39(sp)
  101354:	8cd2                	mv	s9,s4
  101356:	a299                	j	10149c <_vfiprintf_r+0x2d4>
  101358:	0985                	addi	s3,s3,1
  10135a:	bfa1                	j	1012b2 <_vfiprintf_r+0xea>
  10135c:	4585                	li	a1,1
  10135e:	02b00893          	li	a7,43
  101362:	86d6                	mv	a3,s5
  101364:	b7d9                	j	10132a <_vfiprintf_r+0x162>
  101366:	fb160693          	addi	a3,a2,-79
  10136a:	02dce463          	bltu	s9,a3,101392 <_vfiprintf_r+0x1ca>
  10136e:	4762                	lw	a4,24(sp)
  101370:	068a                	slli	a3,a3,0x2
  101372:	96ba                	add	a3,a3,a4
  101374:	4294                	lw	a3,0(a3)
  101376:	8682                	jr	a3
  101378:	fe060693          	addi	a3,a2,-32
  10137c:	00d3eb63          	bltu	t2,a3,101392 <_vfiprintf_r+0x1ca>
  101380:	4752                	lw	a4,20(sp)
  101382:	068a                	slli	a3,a3,0x2
  101384:	96ba                	add	a3,a3,a4
  101386:	4294                	lw	a3,0(a3)
  101388:	8682                	jr	a3
  10138a:	04400693          	li	a3,68
  10138e:	10d60c63          	beq	a2,a3,1014a6 <_vfiprintf_r+0x2de>
  101392:	ddcd                	beqz	a1,10134c <_vfiprintf_r+0x184>
  101394:	bf45                	j	101344 <_vfiprintf_r+0x17c>
  101396:	c199                	beqz	a1,10139c <_vfiprintf_r+0x1d4>
  101398:	031103a3          	sb	a7,39(sp)
  10139c:	00104b37          	lui	s6,0x104
  1013a0:	970b0713          	addi	a4,s6,-1680 # 103970 <_ctype_+0x118>
  1013a4:	c63a                	sw	a4,12(sp)
  1013a6:	010df693          	andi	a3,s11,16
  1013aa:	004a0c93          	addi	s9,s4,4
  1013ae:	38068f63          	beqz	a3,10174c <_vfiprintf_r+0x584>
  1013b2:	000a2683          	lw	a3,0(s4)
  1013b6:	a64d                	j	101758 <_vfiprintf_r+0x590>
  1013b8:	c199                	beqz	a1,1013be <_vfiprintf_r+0x1f6>
  1013ba:	031103a3          	sb	a7,39(sp)
  1013be:	010df693          	andi	a3,s11,16
  1013c2:	004a0c93          	addi	s9,s4,4
  1013c6:	c6f5                	beqz	a3,1014b2 <_vfiprintf_r+0x2ea>
  1013c8:	000a2683          	lw	a3,0(s4)
  1013cc:	4585                	li	a1,1
  1013ce:	0006d863          	bgez	a3,1013de <_vfiprintf_r+0x216>
  1013d2:	02d00613          	li	a2,45
  1013d6:	40d006b3          	neg	a3,a3
  1013da:	02c103a3          	sb	a2,39(sp)
  1013de:	567d                	li	a2,-1
  1013e0:	4ecc0a63          	beq	s8,a2,1018d4 <_vfiprintf_r+0x70c>
  1013e4:	f7fdf613          	andi	a2,s11,-129
  1013e8:	4e069963          	bnez	a3,1018da <_vfiprintf_r+0x712>
  1013ec:	3c0c0c63          	beqz	s8,1017c4 <_vfiprintf_r+0x5fc>
  1013f0:	4705                	li	a4,1
  1013f2:	4ee59763          	bne	a1,a4,1018e0 <_vfiprintf_r+0x718>
  1013f6:	a661                	j	10177e <_vfiprintf_r+0x5b6>
  1013f8:	f60895e3          	bnez	a7,101362 <_vfiprintf_r+0x19a>
  1013fc:	4585                	li	a1,1
  1013fe:	02000893          	li	a7,32
  101402:	b785                	j	101362 <_vfiprintf_r+0x19a>
  101404:	001ded93          	ori	s11,s11,1
  101408:	bfa9                	j	101362 <_vfiprintf_r+0x19a>
  10140a:	000a2983          	lw	s3,0(s4)
  10140e:	0a11                	addi	s4,s4,4
  101410:	f409d9e3          	bgez	s3,101362 <_vfiprintf_r+0x19a>
  101414:	413009b3          	neg	s3,s3
  101418:	004ded93          	ori	s11,s11,4
  10141c:	b799                	j	101362 <_vfiprintf_r+0x19a>
  10141e:	000ac603          	lbu	a2,0(s5)
  101422:	001a8693          	addi	a3,s5,1
  101426:	03761963          	bne	a2,s7,101458 <_vfiprintf_r+0x290>
  10142a:	000a2c03          	lw	s8,0(s4)
  10142e:	004a0613          	addi	a2,s4,4
  101432:	000c5363          	bgez	s8,101438 <_vfiprintf_r+0x270>
  101436:	5c7d                	li	s8,-1
  101438:	8a32                	mv	s4,a2
  10143a:	8ab6                	mv	s5,a3
  10143c:	b71d                	j	101362 <_vfiprintf_r+0x19a>
  10143e:	026c0833          	mul	a6,s8,t1
  101442:	0006c603          	lbu	a2,0(a3)
  101446:	0685                	addi	a3,a3,1
  101448:	01580c33          	add	s8,a6,s5
  10144c:	fd060a93          	addi	s5,a2,-48
  101450:	ff5e77e3          	bgeu	t3,s5,10143e <_vfiprintf_r+0x276>
  101454:	8ab6                	mv	s5,a3
  101456:	bdf1                	j	101332 <_vfiprintf_r+0x16a>
  101458:	4c01                	li	s8,0
  10145a:	bfcd                	j	10144c <_vfiprintf_r+0x284>
  10145c:	080ded93          	ori	s11,s11,128
  101460:	b709                	j	101362 <_vfiprintf_r+0x19a>
  101462:	86d6                	mv	a3,s5
  101464:	4981                	li	s3,0
  101466:	026989b3          	mul	s3,s3,t1
  10146a:	fd060613          	addi	a2,a2,-48
  10146e:	0685                	addi	a3,a3,1
  101470:	99b2                	add	s3,s3,a2
  101472:	fff6c603          	lbu	a2,-1(a3)
  101476:	fd060513          	addi	a0,a2,-48
  10147a:	feae76e3          	bgeu	t3,a0,101466 <_vfiprintf_r+0x29e>
  10147e:	bfd9                	j	101454 <_vfiprintf_r+0x28c>
  101480:	040ded93          	ori	s11,s11,64
  101484:	bdf9                	j	101362 <_vfiprintf_r+0x19a>
  101486:	010ded93          	ori	s11,s11,16
  10148a:	bde1                	j	101362 <_vfiprintf_r+0x19a>
  10148c:	000a2683          	lw	a3,0(s4)
  101490:	004a0c93          	addi	s9,s4,4
  101494:	020103a3          	sb	zero,39(sp)
  101498:	02d10c23          	sb	a3,56(sp)
  10149c:	4c05                	li	s8,1
  10149e:	4a01                	li	s4,0
  1014a0:	03810b13          	addi	s6,sp,56
  1014a4:	a86d                	j	10155e <_vfiprintf_r+0x396>
  1014a6:	c199                	beqz	a1,1014ac <_vfiprintf_r+0x2e4>
  1014a8:	031103a3          	sb	a7,39(sp)
  1014ac:	010ded93          	ori	s11,s11,16
  1014b0:	b739                	j	1013be <_vfiprintf_r+0x1f6>
  1014b2:	040df613          	andi	a2,s11,64
  1014b6:	000a2683          	lw	a3,0(s4)
  1014ba:	da09                	beqz	a2,1013cc <_vfiprintf_r+0x204>
  1014bc:	06c2                	slli	a3,a3,0x10
  1014be:	86c1                	srai	a3,a3,0x10
  1014c0:	b731                	j	1013cc <_vfiprintf_r+0x204>
  1014c2:	c199                	beqz	a1,1014c8 <_vfiprintf_r+0x300>
  1014c4:	031103a3          	sb	a7,39(sp)
  1014c8:	010df613          	andi	a2,s11,16
  1014cc:	000a2683          	lw	a3,0(s4)
  1014d0:	004a0c93          	addi	s9,s4,4
  1014d4:	c601                	beqz	a2,1014dc <_vfiprintf_r+0x314>
  1014d6:	4722                	lw	a4,8(sp)
  1014d8:	c298                	sw	a4,0(a3)
  1014da:	a039                	j	1014e8 <_vfiprintf_r+0x320>
  1014dc:	040df713          	andi	a4,s11,64
  1014e0:	db7d                	beqz	a4,1014d6 <_vfiprintf_r+0x30e>
  1014e2:	4722                	lw	a4,8(sp)
  1014e4:	00e69023          	sh	a4,0(a3)
  1014e8:	8a66                	mv	s4,s9
  1014ea:	b3c9                	j	1012ac <_vfiprintf_r+0xe4>
  1014ec:	010ded93          	ori	s11,s11,16
  1014f0:	010df693          	andi	a3,s11,16
  1014f4:	004a0c93          	addi	s9,s4,4
  1014f8:	c681                	beqz	a3,101500 <_vfiprintf_r+0x338>
  1014fa:	000a2683          	lw	a3,0(s4)
  1014fe:	a031                	j	10150a <_vfiprintf_r+0x342>
  101500:	040df693          	andi	a3,s11,64
  101504:	dafd                	beqz	a3,1014fa <_vfiprintf_r+0x332>
  101506:	000a5683          	lhu	a3,0(s4)
  10150a:	4581                	li	a1,0
  10150c:	020103a3          	sb	zero,39(sp)
  101510:	b5f9                	j	1013de <_vfiprintf_r+0x216>
  101512:	7661                	lui	a2,0xffff8
  101514:	00104b37          	lui	s6,0x104
  101518:	83064613          	xori	a2,a2,-2000
  10151c:	970b0713          	addi	a4,s6,-1680 # 103970 <_ctype_+0x118>
  101520:	000a2683          	lw	a3,0(s4)
  101524:	004a0c93          	addi	s9,s4,4
  101528:	002ded93          	ori	s11,s11,2
  10152c:	02c11423          	sh	a2,40(sp)
  101530:	c63a                	sw	a4,12(sp)
  101532:	4589                	li	a1,2
  101534:	bfe1                	j	10150c <_vfiprintf_r+0x344>
  101536:	020103a3          	sb	zero,39(sp)
  10153a:	56fd                	li	a3,-1
  10153c:	c83e                	sw	a5,16(sp)
  10153e:	000a2b03          	lw	s6,0(s4)
  101542:	004a0c93          	addi	s9,s4,4
  101546:	1cdc0363          	beq	s8,a3,10170c <_vfiprintf_r+0x544>
  10154a:	8662                	mv	a2,s8
  10154c:	4581                	li	a1,0
  10154e:	855a                	mv	a0,s6
  101550:	611000ef          	jal	ra,102360 <memchr>
  101554:	47c2                	lw	a5,16(sp)
  101556:	4a01                	li	s4,0
  101558:	c119                	beqz	a0,10155e <_vfiprintf_r+0x396>
  10155a:	41650c33          	sub	s8,a0,s6
  10155e:	8bd2                	mv	s7,s4
  101560:	018a5363          	bge	s4,s8,101566 <_vfiprintf_r+0x39e>
  101564:	8be2                	mv	s7,s8
  101566:	02714683          	lbu	a3,39(sp)
  10156a:	c291                	beqz	a3,10156e <_vfiprintf_r+0x3a6>
  10156c:	0b85                	addi	s7,s7,1
  10156e:	002df713          	andi	a4,s11,2
  101572:	c83a                	sw	a4,16(sp)
  101574:	c311                	beqz	a4,101578 <_vfiprintf_r+0x3b0>
  101576:	0b89                	addi	s7,s7,2
  101578:	084dfd13          	andi	s10,s11,132
  10157c:	040d1463          	bnez	s10,1015c4 <_vfiprintf_r+0x3fc>
  101580:	417986b3          	sub	a3,s3,s7
  101584:	04d05063          	blez	a3,1015c4 <_vfiprintf_r+0x3fc>
  101588:	00104337          	lui	t1,0x104
  10158c:	4e41                	li	t3,16
  10158e:	83830313          	addi	t1,t1,-1992 # 103838 <blanks.1>
  101592:	4e9d                	li	t4,7
  101594:	5642                	lw	a2,48(sp)
  101596:	0067a023          	sw	t1,0(a5)
  10159a:	55d2                	lw	a1,52(sp)
  10159c:	0605                	addi	a2,a2,1
  10159e:	00878513          	addi	a0,a5,8
  1015a2:	22de4d63          	blt	t3,a3,1017dc <_vfiprintf_r+0x614>
  1015a6:	c3d4                	sw	a3,4(a5)
  1015a8:	96ae                	add	a3,a3,a1
  1015aa:	da36                	sw	a3,52(sp)
  1015ac:	d832                	sw	a2,48(sp)
  1015ae:	469d                	li	a3,7
  1015b0:	87aa                	mv	a5,a0
  1015b2:	00c6d963          	bge	a3,a2,1015c4 <_vfiprintf_r+0x3fc>
  1015b6:	1070                	addi	a2,sp,44
  1015b8:	85a2                	mv	a1,s0
  1015ba:	8526                	mv	a0,s1
  1015bc:	3e8d                	jal	10112e <__sprint_r>
  1015be:	2c051d63          	bnez	a0,101898 <_vfiprintf_r+0x6d0>
  1015c2:	87ca                	mv	a5,s2
  1015c4:	02714683          	lbu	a3,39(sp)
  1015c8:	c69d                	beqz	a3,1015f6 <_vfiprintf_r+0x42e>
  1015ca:	5652                	lw	a2,52(sp)
  1015cc:	56c2                	lw	a3,48(sp)
  1015ce:	02710593          	addi	a1,sp,39
  1015d2:	c38c                	sw	a1,0(a5)
  1015d4:	0605                	addi	a2,a2,1
  1015d6:	0685                	addi	a3,a3,1
  1015d8:	4585                	li	a1,1
  1015da:	c3cc                	sw	a1,4(a5)
  1015dc:	da32                	sw	a2,52(sp)
  1015de:	d836                	sw	a3,48(sp)
  1015e0:	461d                	li	a2,7
  1015e2:	07a1                	addi	a5,a5,8
  1015e4:	00d65963          	bge	a2,a3,1015f6 <_vfiprintf_r+0x42e>
  1015e8:	1070                	addi	a2,sp,44
  1015ea:	85a2                	mv	a1,s0
  1015ec:	8526                	mv	a0,s1
  1015ee:	3681                	jal	10112e <__sprint_r>
  1015f0:	2a051463          	bnez	a0,101898 <_vfiprintf_r+0x6d0>
  1015f4:	87ca                	mv	a5,s2
  1015f6:	4742                	lw	a4,16(sp)
  1015f8:	c715                	beqz	a4,101624 <_vfiprintf_r+0x45c>
  1015fa:	5652                	lw	a2,52(sp)
  1015fc:	56c2                	lw	a3,48(sp)
  1015fe:	102c                	addi	a1,sp,40
  101600:	c38c                	sw	a1,0(a5)
  101602:	0609                	addi	a2,a2,2
  101604:	0685                	addi	a3,a3,1
  101606:	4589                	li	a1,2
  101608:	c3cc                	sw	a1,4(a5)
  10160a:	da32                	sw	a2,52(sp)
  10160c:	d836                	sw	a3,48(sp)
  10160e:	461d                	li	a2,7
  101610:	07a1                	addi	a5,a5,8
  101612:	00d65963          	bge	a2,a3,101624 <_vfiprintf_r+0x45c>
  101616:	1070                	addi	a2,sp,44
  101618:	85a2                	mv	a1,s0
  10161a:	8526                	mv	a0,s1
  10161c:	3e09                	jal	10112e <__sprint_r>
  10161e:	26051d63          	bnez	a0,101898 <_vfiprintf_r+0x6d0>
  101622:	87ca                	mv	a5,s2
  101624:	08000693          	li	a3,128
  101628:	04dd1463          	bne	s10,a3,101670 <_vfiprintf_r+0x4a8>
  10162c:	41798d33          	sub	s10,s3,s7
  101630:	05a05063          	blez	s10,101670 <_vfiprintf_r+0x4a8>
  101634:	00104737          	lui	a4,0x104
  101638:	4341                	li	t1,16
  10163a:	84870713          	addi	a4,a4,-1976 # 103848 <zeroes.0>
  10163e:	4e1d                	li	t3,7
  101640:	56c2                	lw	a3,48(sp)
  101642:	c398                	sw	a4,0(a5)
  101644:	5652                	lw	a2,52(sp)
  101646:	0685                	addi	a3,a3,1
  101648:	00878593          	addi	a1,a5,8
  10164c:	1da34063          	blt	t1,s10,10180c <_vfiprintf_r+0x644>
  101650:	01a7a223          	sw	s10,4(a5)
  101654:	9d32                	add	s10,s10,a2
  101656:	da6a                	sw	s10,52(sp)
  101658:	d836                	sw	a3,48(sp)
  10165a:	461d                	li	a2,7
  10165c:	87ae                	mv	a5,a1
  10165e:	00d65963          	bge	a2,a3,101670 <_vfiprintf_r+0x4a8>
  101662:	1070                	addi	a2,sp,44
  101664:	85a2                	mv	a1,s0
  101666:	8526                	mv	a0,s1
  101668:	34d9                	jal	10112e <__sprint_r>
  10166a:	22051763          	bnez	a0,101898 <_vfiprintf_r+0x6d0>
  10166e:	87ca                	mv	a5,s2
  101670:	418a0a33          	sub	s4,s4,s8
  101674:	05405163          	blez	s4,1016b6 <_vfiprintf_r+0x4ee>
  101678:	001046b7          	lui	a3,0x104
  10167c:	4741                	li	a4,16
  10167e:	84868d13          	addi	s10,a3,-1976 # 103848 <zeroes.0>
  101682:	431d                	li	t1,7
  101684:	56c2                	lw	a3,48(sp)
  101686:	01a7a023          	sw	s10,0(a5)
  10168a:	5652                	lw	a2,52(sp)
  10168c:	0685                	addi	a3,a3,1
  10168e:	00878593          	addi	a1,a5,8
  101692:	1b474363          	blt	a4,s4,101838 <_vfiprintf_r+0x670>
  101696:	0147a223          	sw	s4,4(a5)
  10169a:	9a32                	add	s4,s4,a2
  10169c:	da52                	sw	s4,52(sp)
  10169e:	d836                	sw	a3,48(sp)
  1016a0:	461d                	li	a2,7
  1016a2:	87ae                	mv	a5,a1
  1016a4:	00d65963          	bge	a2,a3,1016b6 <_vfiprintf_r+0x4ee>
  1016a8:	1070                	addi	a2,sp,44
  1016aa:	85a2                	mv	a1,s0
  1016ac:	8526                	mv	a0,s1
  1016ae:	3441                	jal	10112e <__sprint_r>
  1016b0:	1e051463          	bnez	a0,101898 <_vfiprintf_r+0x6d0>
  1016b4:	87ca                	mv	a5,s2
  1016b6:	5552                	lw	a0,52(sp)
  1016b8:	56c2                	lw	a3,48(sp)
  1016ba:	0167a023          	sw	s6,0(a5)
  1016be:	01850833          	add	a6,a0,s8
  1016c2:	0685                	addi	a3,a3,1
  1016c4:	0187a223          	sw	s8,4(a5)
  1016c8:	da42                	sw	a6,52(sp)
  1016ca:	d836                	sw	a3,48(sp)
  1016cc:	461d                	li	a2,7
  1016ce:	07a1                	addi	a5,a5,8
  1016d0:	00d65963          	bge	a2,a3,1016e2 <_vfiprintf_r+0x51a>
  1016d4:	1070                	addi	a2,sp,44
  1016d6:	85a2                	mv	a1,s0
  1016d8:	8526                	mv	a0,s1
  1016da:	3c91                	jal	10112e <__sprint_r>
  1016dc:	1a051e63          	bnez	a0,101898 <_vfiprintf_r+0x6d0>
  1016e0:	87ca                	mv	a5,s2
  1016e2:	004df713          	andi	a4,s11,4
  1016e6:	16071a63          	bnez	a4,10185a <_vfiprintf_r+0x692>
  1016ea:	0179d363          	bge	s3,s7,1016f0 <_vfiprintf_r+0x528>
  1016ee:	89de                	mv	s3,s7
  1016f0:	47a2                	lw	a5,8(sp)
  1016f2:	97ce                	add	a5,a5,s3
  1016f4:	c43e                	sw	a5,8(sp)
  1016f6:	57d2                	lw	a5,52(sp)
  1016f8:	c799                	beqz	a5,101706 <_vfiprintf_r+0x53e>
  1016fa:	1070                	addi	a2,sp,44
  1016fc:	85a2                	mv	a1,s0
  1016fe:	8526                	mv	a0,s1
  101700:	343d                	jal	10112e <__sprint_r>
  101702:	18051b63          	bnez	a0,101898 <_vfiprintf_r+0x6d0>
  101706:	d802                	sw	zero,48(sp)
  101708:	87ca                	mv	a5,s2
  10170a:	bbf9                	j	1014e8 <_vfiprintf_r+0x320>
  10170c:	855a                	mv	a0,s6
  10170e:	65d000ef          	jal	ra,10256a <strlen>
  101712:	47c2                	lw	a5,16(sp)
  101714:	8c2a                	mv	s8,a0
  101716:	4a01                	li	s4,0
  101718:	b599                	j	10155e <_vfiprintf_r+0x396>
  10171a:	010ded93          	ori	s11,s11,16
  10171e:	010df693          	andi	a3,s11,16
  101722:	004a0c93          	addi	s9,s4,4
  101726:	c681                	beqz	a3,10172e <_vfiprintf_r+0x566>
  101728:	000a2683          	lw	a3,0(s4)
  10172c:	a031                	j	101738 <_vfiprintf_r+0x570>
  10172e:	040df693          	andi	a3,s11,64
  101732:	dafd                	beqz	a3,101728 <_vfiprintf_r+0x560>
  101734:	000a5683          	lhu	a3,0(s4)
  101738:	4585                	li	a1,1
  10173a:	bbc9                	j	10150c <_vfiprintf_r+0x344>
  10173c:	c199                	beqz	a1,101742 <_vfiprintf_r+0x57a>
  10173e:	031103a3          	sb	a7,39(sp)
  101742:	00104b37          	lui	s6,0x104
  101746:	95cb0713          	addi	a4,s6,-1700 # 10395c <_ctype_+0x104>
  10174a:	b9a9                	j	1013a4 <_vfiprintf_r+0x1dc>
  10174c:	040df693          	andi	a3,s11,64
  101750:	c60681e3          	beqz	a3,1013b2 <_vfiprintf_r+0x1ea>
  101754:	000a5683          	lhu	a3,0(s4)
  101758:	001df513          	andi	a0,s11,1
  10175c:	4589                	li	a1,2
  10175e:	da0507e3          	beqz	a0,10150c <_vfiprintf_r+0x344>
  101762:	da0685e3          	beqz	a3,10150c <_vfiprintf_r+0x344>
  101766:	03000513          	li	a0,48
  10176a:	02a10423          	sb	a0,40(sp)
  10176e:	02c104a3          	sb	a2,41(sp)
  101772:	002ded93          	ori	s11,s11,2
  101776:	bb59                	j	10150c <_vfiprintf_r+0x344>
  101778:	4725                	li	a4,9
  10177a:	00d76963          	bltu	a4,a3,10178c <_vfiprintf_r+0x5c4>
  10177e:	03068693          	addi	a3,a3,48
  101782:	04d10fa3          	sb	a3,95(sp)
  101786:	05f10b13          	addi	s6,sp,95
  10178a:	a261                	j	101912 <_vfiprintf_r+0x74a>
  10178c:	8b4a                	mv	s6,s2
  10178e:	45a9                	li	a1,10
  101790:	4525                	li	a0,9
  101792:	02b6f733          	remu	a4,a3,a1
  101796:	1b7d                	addi	s6,s6,-1
  101798:	03070713          	addi	a4,a4,48
  10179c:	00eb0023          	sb	a4,0(s6)
  1017a0:	8736                	mv	a4,a3
  1017a2:	02b6d6b3          	divu	a3,a3,a1
  1017a6:	fee566e3          	bltu	a0,a4,101792 <_vfiprintf_r+0x5ca>
  1017aa:	a2a5                	j	101912 <_vfiprintf_r+0x74a>
  1017ac:	45b2                	lw	a1,12(sp)
  1017ae:	00f6f713          	andi	a4,a3,15
  1017b2:	1b7d                	addi	s6,s6,-1
  1017b4:	972e                	add	a4,a4,a1
  1017b6:	00074703          	lbu	a4,0(a4)
  1017ba:	8291                	srli	a3,a3,0x4
  1017bc:	00eb0023          	sb	a4,0(s6)
  1017c0:	f6f5                	bnez	a3,1017ac <_vfiprintf_r+0x5e4>
  1017c2:	aa81                	j	101912 <_vfiprintf_r+0x74a>
  1017c4:	8b4a                	mv	s6,s2
  1017c6:	14059663          	bnez	a1,101912 <_vfiprintf_r+0x74a>
  1017ca:	001df713          	andi	a4,s11,1
  1017ce:	14070263          	beqz	a4,101912 <_vfiprintf_r+0x74a>
  1017d2:	03000713          	li	a4,48
  1017d6:	04e10fa3          	sb	a4,95(sp)
  1017da:	b775                	j	101786 <_vfiprintf_r+0x5be>
  1017dc:	05c1                	addi	a1,a1,16
  1017de:	01c7a223          	sw	t3,4(a5)
  1017e2:	da2e                	sw	a1,52(sp)
  1017e4:	d832                	sw	a2,48(sp)
  1017e6:	02ced063          	bge	t4,a2,101806 <_vfiprintf_r+0x63e>
  1017ea:	1070                	addi	a2,sp,44
  1017ec:	85a2                	mv	a1,s0
  1017ee:	8526                	mv	a0,s1
  1017f0:	ce36                	sw	a3,28(sp)
  1017f2:	3a35                	jal	10112e <__sprint_r>
  1017f4:	e155                	bnez	a0,101898 <_vfiprintf_r+0x6d0>
  1017f6:	46f2                	lw	a3,28(sp)
  1017f8:	001047b7          	lui	a5,0x104
  1017fc:	854a                	mv	a0,s2
  1017fe:	4e9d                	li	t4,7
  101800:	83878313          	addi	t1,a5,-1992 # 103838 <blanks.1>
  101804:	4e41                	li	t3,16
  101806:	16c1                	addi	a3,a3,-16
  101808:	87aa                	mv	a5,a0
  10180a:	b369                	j	101594 <_vfiprintf_r+0x3cc>
  10180c:	0641                	addi	a2,a2,16
  10180e:	0067a223          	sw	t1,4(a5)
  101812:	da32                	sw	a2,52(sp)
  101814:	d836                	sw	a3,48(sp)
  101816:	00de5e63          	bge	t3,a3,101832 <_vfiprintf_r+0x66a>
  10181a:	1070                	addi	a2,sp,44
  10181c:	85a2                	mv	a1,s0
  10181e:	8526                	mv	a0,s1
  101820:	3239                	jal	10112e <__sprint_r>
  101822:	e93d                	bnez	a0,101898 <_vfiprintf_r+0x6d0>
  101824:	001047b7          	lui	a5,0x104
  101828:	85ca                	mv	a1,s2
  10182a:	4e1d                	li	t3,7
  10182c:	84878713          	addi	a4,a5,-1976 # 103848 <zeroes.0>
  101830:	4341                	li	t1,16
  101832:	1d41                	addi	s10,s10,-16
  101834:	87ae                	mv	a5,a1
  101836:	b529                	j	101640 <_vfiprintf_r+0x478>
  101838:	0641                	addi	a2,a2,16
  10183a:	c3d8                	sw	a4,4(a5)
  10183c:	da32                	sw	a2,52(sp)
  10183e:	d836                	sw	a3,48(sp)
  101840:	00d35a63          	bge	t1,a3,101854 <_vfiprintf_r+0x68c>
  101844:	1070                	addi	a2,sp,44
  101846:	85a2                	mv	a1,s0
  101848:	8526                	mv	a0,s1
  10184a:	30d5                	jal	10112e <__sprint_r>
  10184c:	e531                	bnez	a0,101898 <_vfiprintf_r+0x6d0>
  10184e:	85ca                	mv	a1,s2
  101850:	431d                	li	t1,7
  101852:	4741                	li	a4,16
  101854:	1a41                	addi	s4,s4,-16
  101856:	87ae                	mv	a5,a1
  101858:	b535                	j	101684 <_vfiprintf_r+0x4bc>
  10185a:	41798a33          	sub	s4,s3,s7
  10185e:	e94056e3          	blez	s4,1016ea <_vfiprintf_r+0x522>
  101862:	00104d37          	lui	s10,0x104
  101866:	4dc1                	li	s11,16
  101868:	838d0d13          	addi	s10,s10,-1992 # 103838 <blanks.1>
  10186c:	4c1d                	li	s8,7
  10186e:	5742                	lw	a4,48(sp)
  101870:	01a7a023          	sw	s10,0(a5)
  101874:	56d2                	lw	a3,52(sp)
  101876:	0705                	addi	a4,a4,1
  101878:	034dc763          	blt	s11,s4,1018a6 <_vfiprintf_r+0x6de>
  10187c:	0147a223          	sw	s4,4(a5)
  101880:	9a36                	add	s4,s4,a3
  101882:	da52                	sw	s4,52(sp)
  101884:	d83a                	sw	a4,48(sp)
  101886:	479d                	li	a5,7
  101888:	e6e7d1e3          	bge	a5,a4,1016ea <_vfiprintf_r+0x522>
  10188c:	1070                	addi	a2,sp,44
  10188e:	85a2                	mv	a1,s0
  101890:	8526                	mv	a0,s1
  101892:	3871                	jal	10112e <__sprint_r>
  101894:	e4050be3          	beqz	a0,1016ea <_vfiprintf_r+0x522>
  101898:	00c45783          	lhu	a5,12(s0)
  10189c:	0407f793          	andi	a5,a5,64
  1018a0:	9c0784e3          	beqz	a5,101268 <_vfiprintf_r+0xa0>
  1018a4:	b2c1                	j	101264 <_vfiprintf_r+0x9c>
  1018a6:	06c1                	addi	a3,a3,16
  1018a8:	01b7a223          	sw	s11,4(a5)
  1018ac:	da36                	sw	a3,52(sp)
  1018ae:	d83a                	sw	a4,48(sp)
  1018b0:	07a1                	addi	a5,a5,8
  1018b2:	00ec5863          	bge	s8,a4,1018c2 <_vfiprintf_r+0x6fa>
  1018b6:	1070                	addi	a2,sp,44
  1018b8:	85a2                	mv	a1,s0
  1018ba:	8526                	mv	a0,s1
  1018bc:	388d                	jal	10112e <__sprint_r>
  1018be:	fd69                	bnez	a0,101898 <_vfiprintf_r+0x6d0>
  1018c0:	87ca                	mv	a5,s2
  1018c2:	1a41                	addi	s4,s4,-16
  1018c4:	b76d                	j	10186e <_vfiprintf_r+0x6a6>
  1018c6:	57d2                	lw	a5,52(sp)
  1018c8:	dbe1                	beqz	a5,101898 <_vfiprintf_r+0x6d0>
  1018ca:	1070                	addi	a2,sp,44
  1018cc:	85a2                	mv	a1,s0
  1018ce:	8526                	mv	a0,s1
  1018d0:	38b9                	jal	10112e <__sprint_r>
  1018d2:	b7d9                	j	101898 <_vfiprintf_r+0x6d0>
  1018d4:	866e                	mv	a2,s11
  1018d6:	b0068de3          	beqz	a3,1013f0 <_vfiprintf_r+0x228>
  1018da:	4705                	li	a4,1
  1018dc:	e8e58ee3          	beq	a1,a4,101778 <_vfiprintf_r+0x5b0>
  1018e0:	4709                	li	a4,2
  1018e2:	8b4a                	mv	s6,s2
  1018e4:	ece584e3          	beq	a1,a4,1017ac <_vfiprintf_r+0x5e4>
  1018e8:	0076f713          	andi	a4,a3,7
  1018ec:	85da                	mv	a1,s6
  1018ee:	03070713          	addi	a4,a4,48
  1018f2:	828d                	srli	a3,a3,0x3
  1018f4:	feeb0fa3          	sb	a4,-1(s6)
  1018f8:	1b7d                	addi	s6,s6,-1
  1018fa:	f6fd                	bnez	a3,1018e8 <_vfiprintf_r+0x720>
  1018fc:	00167693          	andi	a3,a2,1
  101900:	ca89                	beqz	a3,101912 <_vfiprintf_r+0x74a>
  101902:	03000693          	li	a3,48
  101906:	00d70663          	beq	a4,a3,101912 <_vfiprintf_r+0x74a>
  10190a:	fedb0fa3          	sb	a3,-1(s6)
  10190e:	ffe58b13          	addi	s6,a1,-2
  101912:	8a62                	mv	s4,s8
  101914:	8db2                	mv	s11,a2
  101916:	41690c33          	sub	s8,s2,s6
  10191a:	b191                	j	10155e <_vfiprintf_r+0x396>

0010191c <vfiprintf>:
  10191c:	001047b7          	lui	a5,0x104
  101920:	86b2                	mv	a3,a2
  101922:	862e                	mv	a2,a1
  101924:	85aa                	mv	a1,a0
  101926:	99c7a503          	lw	a0,-1636(a5) # 10399c <_impure_ptr>
  10192a:	b879                	j	1011c8 <_vfiprintf_r>

0010192c <__sbprintf>:
  10192c:	00c5d783          	lhu	a5,12(a1)
  101930:	b8010113          	addi	sp,sp,-1152
  101934:	46812c23          	sw	s0,1144(sp)
  101938:	9bf5                	andi	a5,a5,-3
  10193a:	00f11a23          	sh	a5,20(sp)
  10193e:	51fc                	lw	a5,100(a1)
  101940:	842e                	mv	s0,a1
  101942:	46912a23          	sw	s1,1140(sp)
  101946:	d6be                	sw	a5,108(sp)
  101948:	00e5d783          	lhu	a5,14(a1)
  10194c:	47212823          	sw	s2,1136(sp)
  101950:	46112e23          	sw	ra,1148(sp)
  101954:	00f11b23          	sh	a5,22(sp)
  101958:	4ddc                	lw	a5,28(a1)
  10195a:	892a                	mv	s2,a0
  10195c:	d002                	sw	zero,32(sp)
  10195e:	d23e                	sw	a5,36(sp)
  101960:	51dc                	lw	a5,36(a1)
  101962:	002c                	addi	a1,sp,8
  101964:	d63e                	sw	a5,44(sp)
  101966:	189c                	addi	a5,sp,112
  101968:	c43e                	sw	a5,8(sp)
  10196a:	cc3e                	sw	a5,24(sp)
  10196c:	40000793          	li	a5,1024
  101970:	c83e                	sw	a5,16(sp)
  101972:	ce3e                	sw	a5,28(sp)
  101974:	3891                	jal	1011c8 <_vfiprintf_r>
  101976:	84aa                	mv	s1,a0
  101978:	00054763          	bltz	a0,101986 <__sbprintf+0x5a>
  10197c:	002c                	addi	a1,sp,8
  10197e:	854a                	mv	a0,s2
  101980:	2a79                	jal	101b1e <_fflush_r>
  101982:	c111                	beqz	a0,101986 <__sbprintf+0x5a>
  101984:	54fd                	li	s1,-1
  101986:	01415783          	lhu	a5,20(sp)
  10198a:	0407f793          	andi	a5,a5,64
  10198e:	c799                	beqz	a5,10199c <__sbprintf+0x70>
  101990:	00c45783          	lhu	a5,12(s0)
  101994:	0407e793          	ori	a5,a5,64
  101998:	00f41623          	sh	a5,12(s0)
  10199c:	47c12083          	lw	ra,1148(sp)
  1019a0:	47812403          	lw	s0,1144(sp)
  1019a4:	47012903          	lw	s2,1136(sp)
  1019a8:	8526                	mv	a0,s1
  1019aa:	47412483          	lw	s1,1140(sp)
  1019ae:	48010113          	addi	sp,sp,1152
  1019b2:	8082                	ret

001019b4 <__sflush_r>:
  1019b4:	00c59783          	lh	a5,12(a1)
  1019b8:	1101                	addi	sp,sp,-32
  1019ba:	cc22                	sw	s0,24(sp)
  1019bc:	ca26                	sw	s1,20(sp)
  1019be:	ce06                	sw	ra,28(sp)
  1019c0:	c84a                	sw	s2,16(sp)
  1019c2:	c64e                	sw	s3,12(sp)
  1019c4:	0087f693          	andi	a3,a5,8
  1019c8:	84aa                	mv	s1,a0
  1019ca:	842e                	mv	s0,a1
  1019cc:	10069063          	bnez	a3,101acc <__sflush_r+0x118>
  1019d0:	6705                	lui	a4,0x1
  1019d2:	80070713          	addi	a4,a4,-2048 # 800 <_min_stack-0x800>
  1019d6:	8fd9                	or	a5,a5,a4
  1019d8:	41d8                	lw	a4,4(a1)
  1019da:	00f59623          	sh	a5,12(a1)
  1019de:	00e04d63          	bgtz	a4,1019f8 <__sflush_r+0x44>
  1019e2:	5dd8                	lw	a4,60(a1)
  1019e4:	00e04a63          	bgtz	a4,1019f8 <__sflush_r+0x44>
  1019e8:	4501                	li	a0,0
  1019ea:	40f2                	lw	ra,28(sp)
  1019ec:	4462                	lw	s0,24(sp)
  1019ee:	44d2                	lw	s1,20(sp)
  1019f0:	4942                	lw	s2,16(sp)
  1019f2:	49b2                	lw	s3,12(sp)
  1019f4:	6105                	addi	sp,sp,32
  1019f6:	8082                	ret
  1019f8:	5418                	lw	a4,40(s0)
  1019fa:	d77d                	beqz	a4,1019e8 <__sflush_r+0x34>
  1019fc:	83b1                	srli	a5,a5,0xc
  1019fe:	0004a903          	lw	s2,0(s1)
  101a02:	8b85                	andi	a5,a5,1
  101a04:	0004a023          	sw	zero,0(s1)
  101a08:	c7c9                	beqz	a5,101a92 <__sflush_r+0xde>
  101a0a:	4828                	lw	a0,80(s0)
  101a0c:	00c45783          	lhu	a5,12(s0)
  101a10:	8b91                	andi	a5,a5,4
  101a12:	c799                	beqz	a5,101a20 <__sflush_r+0x6c>
  101a14:	405c                	lw	a5,4(s0)
  101a16:	8d1d                	sub	a0,a0,a5
  101a18:	581c                	lw	a5,48(s0)
  101a1a:	c399                	beqz	a5,101a20 <__sflush_r+0x6c>
  101a1c:	5c5c                	lw	a5,60(s0)
  101a1e:	8d1d                	sub	a0,a0,a5
  101a20:	541c                	lw	a5,40(s0)
  101a22:	4c4c                	lw	a1,28(s0)
  101a24:	4681                	li	a3,0
  101a26:	862a                	mv	a2,a0
  101a28:	8526                	mv	a0,s1
  101a2a:	9782                	jalr	a5
  101a2c:	57fd                	li	a5,-1
  101a2e:	00c45683          	lhu	a3,12(s0)
  101a32:	00f51d63          	bne	a0,a5,101a4c <__sflush_r+0x98>
  101a36:	409c                	lw	a5,0(s1)
  101a38:	4775                	li	a4,29
  101a3a:	08f76663          	bltu	a4,a5,101ac6 <__sflush_r+0x112>
  101a3e:	20400737          	lui	a4,0x20400
  101a42:	0705                	addi	a4,a4,1
  101a44:	00f75733          	srl	a4,a4,a5
  101a48:	8b05                	andi	a4,a4,1
  101a4a:	cf35                	beqz	a4,101ac6 <__sflush_r+0x112>
  101a4c:	77fd                	lui	a5,0xfffff
  101a4e:	7ff78793          	addi	a5,a5,2047 # fffff7ff <_stack_start+0xffeef7ff>
  101a52:	8ff5                	and	a5,a5,a3
  101a54:	4818                	lw	a4,16(s0)
  101a56:	07c2                	slli	a5,a5,0x10
  101a58:	87c1                	srai	a5,a5,0x10
  101a5a:	00f41623          	sh	a5,12(s0)
  101a5e:	83b1                	srli	a5,a5,0xc
  101a60:	00042223          	sw	zero,4(s0)
  101a64:	c018                	sw	a4,0(s0)
  101a66:	8b85                	andi	a5,a5,1
  101a68:	c799                	beqz	a5,101a76 <__sflush_r+0xc2>
  101a6a:	57fd                	li	a5,-1
  101a6c:	00f51463          	bne	a0,a5,101a74 <__sflush_r+0xc0>
  101a70:	409c                	lw	a5,0(s1)
  101a72:	e391                	bnez	a5,101a76 <__sflush_r+0xc2>
  101a74:	c828                	sw	a0,80(s0)
  101a76:	580c                	lw	a1,48(s0)
  101a78:	0124a023          	sw	s2,0(s1)
  101a7c:	d5b5                	beqz	a1,1019e8 <__sflush_r+0x34>
  101a7e:	04040793          	addi	a5,s0,64
  101a82:	00f58563          	beq	a1,a5,101a8c <__sflush_r+0xd8>
  101a86:	8526                	mv	a0,s1
  101a88:	3d3000ef          	jal	ra,10265a <_free_r>
  101a8c:	02042823          	sw	zero,48(s0)
  101a90:	bfa1                	j	1019e8 <__sflush_r+0x34>
  101a92:	4c4c                	lw	a1,28(s0)
  101a94:	4685                	li	a3,1
  101a96:	4601                	li	a2,0
  101a98:	8526                	mv	a0,s1
  101a9a:	9702                	jalr	a4
  101a9c:	57fd                	li	a5,-1
  101a9e:	f6f517e3          	bne	a0,a5,101a0c <__sflush_r+0x58>
  101aa2:	409c                	lw	a5,0(s1)
  101aa4:	d7a5                	beqz	a5,101a0c <__sflush_r+0x58>
  101aa6:	4775                	li	a4,29
  101aa8:	00e78563          	beq	a5,a4,101ab2 <__sflush_r+0xfe>
  101aac:	4759                	li	a4,22
  101aae:	00e79563          	bne	a5,a4,101ab8 <__sflush_r+0x104>
  101ab2:	0124a023          	sw	s2,0(s1)
  101ab6:	bf0d                	j	1019e8 <__sflush_r+0x34>
  101ab8:	00c45783          	lhu	a5,12(s0)
  101abc:	0407e793          	ori	a5,a5,64
  101ac0:	00f41623          	sh	a5,12(s0)
  101ac4:	b71d                	j	1019ea <__sflush_r+0x36>
  101ac6:	0406e793          	ori	a5,a3,64
  101aca:	bfdd                	j	101ac0 <__sflush_r+0x10c>
  101acc:	0105a983          	lw	s3,16(a1)
  101ad0:	f0098ce3          	beqz	s3,1019e8 <__sflush_r+0x34>
  101ad4:	0005a903          	lw	s2,0(a1)
  101ad8:	01079713          	slli	a4,a5,0x10
  101adc:	8341                	srli	a4,a4,0x10
  101ade:	00377793          	andi	a5,a4,3
  101ae2:	0135a023          	sw	s3,0(a1)
  101ae6:	41390933          	sub	s2,s2,s3
  101aea:	4701                	li	a4,0
  101aec:	e391                	bnez	a5,101af0 <__sflush_r+0x13c>
  101aee:	49d8                	lw	a4,20(a1)
  101af0:	c418                	sw	a4,8(s0)
  101af2:	ef205be3          	blez	s2,1019e8 <__sflush_r+0x34>
  101af6:	505c                	lw	a5,36(s0)
  101af8:	4c4c                	lw	a1,28(s0)
  101afa:	86ca                	mv	a3,s2
  101afc:	864e                	mv	a2,s3
  101afe:	8526                	mv	a0,s1
  101b00:	9782                	jalr	a5
  101b02:	00a04a63          	bgtz	a0,101b16 <__sflush_r+0x162>
  101b06:	00c45783          	lhu	a5,12(s0)
  101b0a:	557d                	li	a0,-1
  101b0c:	0407e793          	ori	a5,a5,64
  101b10:	00f41623          	sh	a5,12(s0)
  101b14:	bdd9                	j	1019ea <__sflush_r+0x36>
  101b16:	99aa                	add	s3,s3,a0
  101b18:	40a90933          	sub	s2,s2,a0
  101b1c:	bfd9                	j	101af2 <__sflush_r+0x13e>

00101b1e <_fflush_r>:
  101b1e:	1101                	addi	sp,sp,-32
  101b20:	cc22                	sw	s0,24(sp)
  101b22:	ce06                	sw	ra,28(sp)
  101b24:	842a                	mv	s0,a0
  101b26:	c511                	beqz	a0,101b32 <_fflush_r+0x14>
  101b28:	595c                	lw	a5,52(a0)
  101b2a:	e781                	bnez	a5,101b32 <_fflush_r+0x14>
  101b2c:	c62e                	sw	a1,12(sp)
  101b2e:	2415                	jal	101d52 <__sinit>
  101b30:	45b2                	lw	a1,12(sp)
  101b32:	00c59783          	lh	a5,12(a1)
  101b36:	c791                	beqz	a5,101b42 <_fflush_r+0x24>
  101b38:	8522                	mv	a0,s0
  101b3a:	4462                	lw	s0,24(sp)
  101b3c:	40f2                	lw	ra,28(sp)
  101b3e:	6105                	addi	sp,sp,32
  101b40:	bd95                	j	1019b4 <__sflush_r>
  101b42:	40f2                	lw	ra,28(sp)
  101b44:	4462                	lw	s0,24(sp)
  101b46:	4501                	li	a0,0
  101b48:	6105                	addi	sp,sp,32
  101b4a:	8082                	ret

00101b4c <fflush>:
  101b4c:	85aa                	mv	a1,a0
  101b4e:	ed11                	bnez	a0,101b6a <fflush+0x1e>
  101b50:	00104637          	lui	a2,0x104
  101b54:	001025b7          	lui	a1,0x102
  101b58:	00104537          	lui	a0,0x104
  101b5c:	ac860613          	addi	a2,a2,-1336 # 103ac8 <__sglue>
  101b60:	b1e58593          	addi	a1,a1,-1250 # 101b1e <_fflush_r>
  101b64:	9a850513          	addi	a0,a0,-1624 # 1039a8 <_impure_data>
  101b68:	a9f5                	j	102064 <_fwalk_sglue>
  101b6a:	001047b7          	lui	a5,0x104
  101b6e:	99c7a503          	lw	a0,-1636(a5) # 10399c <_impure_ptr>
  101b72:	b775                	j	101b1e <_fflush_r>

00101b74 <__fp_lock>:
  101b74:	4501                	li	a0,0
  101b76:	8082                	ret

00101b78 <std>:
  101b78:	1141                	addi	sp,sp,-16
  101b7a:	c422                	sw	s0,8(sp)
  101b7c:	c606                	sw	ra,12(sp)
  101b7e:	842a                	mv	s0,a0
  101b80:	00b51623          	sh	a1,12(a0)
  101b84:	00c51723          	sh	a2,14(a0)
  101b88:	00052023          	sw	zero,0(a0)
  101b8c:	00052223          	sw	zero,4(a0)
  101b90:	00052423          	sw	zero,8(a0)
  101b94:	06052223          	sw	zero,100(a0)
  101b98:	00052823          	sw	zero,16(a0)
  101b9c:	00052a23          	sw	zero,20(a0)
  101ba0:	00052c23          	sw	zero,24(a0)
  101ba4:	4621                	li	a2,8
  101ba6:	4581                	li	a1,0
  101ba8:	05c50513          	addi	a0,a0,92
  101bac:	199000ef          	jal	ra,102544 <memset>
  101bb0:	001027b7          	lui	a5,0x102
  101bb4:	0cc78793          	addi	a5,a5,204 # 1020cc <__sread>
  101bb8:	d01c                	sw	a5,32(s0)
  101bba:	001027b7          	lui	a5,0x102
  101bbe:	10078793          	addi	a5,a5,256 # 102100 <__swrite>
  101bc2:	d05c                	sw	a5,36(s0)
  101bc4:	001027b7          	lui	a5,0x102
  101bc8:	14e78793          	addi	a5,a5,334 # 10214e <__sseek>
  101bcc:	d41c                	sw	a5,40(s0)
  101bce:	001027b7          	lui	a5,0x102
  101bd2:	18478793          	addi	a5,a5,388 # 102184 <__sclose>
  101bd6:	40b2                	lw	ra,12(sp)
  101bd8:	cc40                	sw	s0,28(s0)
  101bda:	d45c                	sw	a5,44(s0)
  101bdc:	4422                	lw	s0,8(sp)
  101bde:	0141                	addi	sp,sp,16
  101be0:	8082                	ret

00101be2 <stdio_exit_handler>:
  101be2:	00104637          	lui	a2,0x104
  101be6:	001035b7          	lui	a1,0x103
  101bea:	00104537          	lui	a0,0x104
  101bee:	ac860613          	addi	a2,a2,-1336 # 103ac8 <__sglue>
  101bf2:	11058593          	addi	a1,a1,272 # 103110 <_fclose_r>
  101bf6:	9a850513          	addi	a0,a0,-1624 # 1039a8 <_impure_data>
  101bfa:	a1ad                	j	102064 <_fwalk_sglue>

00101bfc <cleanup_stdio>:
  101bfc:	1141                	addi	sp,sp,-16
  101bfe:	414c                	lw	a1,4(a0)
  101c00:	c226                	sw	s1,4(sp)
  101c02:	001044b7          	lui	s1,0x104
  101c06:	c422                	sw	s0,8(sp)
  101c08:	c606                	sw	ra,12(sp)
  101c0a:	07448493          	addi	s1,s1,116 # 104074 <__sf>
  101c0e:	842a                	mv	s0,a0
  101c10:	00958463          	beq	a1,s1,101c18 <cleanup_stdio+0x1c>
  101c14:	4fc010ef          	jal	ra,103110 <_fclose_r>
  101c18:	440c                	lw	a1,8(s0)
  101c1a:	06848793          	addi	a5,s1,104
  101c1e:	00f58563          	beq	a1,a5,101c28 <cleanup_stdio+0x2c>
  101c22:	8522                	mv	a0,s0
  101c24:	4ec010ef          	jal	ra,103110 <_fclose_r>
  101c28:	444c                	lw	a1,12(s0)
  101c2a:	0d048493          	addi	s1,s1,208
  101c2e:	00958963          	beq	a1,s1,101c40 <cleanup_stdio+0x44>
  101c32:	8522                	mv	a0,s0
  101c34:	4422                	lw	s0,8(sp)
  101c36:	40b2                	lw	ra,12(sp)
  101c38:	4492                	lw	s1,4(sp)
  101c3a:	0141                	addi	sp,sp,16
  101c3c:	4d40106f          	j	103110 <_fclose_r>
  101c40:	40b2                	lw	ra,12(sp)
  101c42:	4422                	lw	s0,8(sp)
  101c44:	4492                	lw	s1,4(sp)
  101c46:	0141                	addi	sp,sp,16
  101c48:	8082                	ret

00101c4a <global_stdio_init.part.0>:
  101c4a:	1141                	addi	sp,sp,-16
  101c4c:	00104537          	lui	a0,0x104
  101c50:	001027b7          	lui	a5,0x102
  101c54:	c422                	sw	s0,8(sp)
  101c56:	00104737          	lui	a4,0x104
  101c5a:	07450413          	addi	s0,a0,116 # 104074 <__sf>
  101c5e:	be278793          	addi	a5,a5,-1054 # 101be2 <stdio_exit_handler>
  101c62:	4601                	li	a2,0
  101c64:	4591                	li	a1,4
  101c66:	07450513          	addi	a0,a0,116
  101c6a:	c606                	sw	ra,12(sp)
  101c6c:	04f72c23          	sw	a5,88(a4) # 104058 <__stdio_exit_handler>
  101c70:	3721                	jal	101b78 <std>
  101c72:	06840513          	addi	a0,s0,104
  101c76:	4605                	li	a2,1
  101c78:	45a5                	li	a1,9
  101c7a:	3dfd                	jal	101b78 <std>
  101c7c:	0d040513          	addi	a0,s0,208
  101c80:	4422                	lw	s0,8(sp)
  101c82:	40b2                	lw	ra,12(sp)
  101c84:	4609                	li	a2,2
  101c86:	45c9                	li	a1,18
  101c88:	0141                	addi	sp,sp,16
  101c8a:	b5fd                	j	101b78 <std>

00101c8c <__fp_unlock>:
  101c8c:	4501                	li	a0,0
  101c8e:	8082                	ret

00101c90 <__sfp>:
  101c90:	001047b7          	lui	a5,0x104
  101c94:	0587a783          	lw	a5,88(a5) # 104058 <__stdio_exit_handler>
  101c98:	1101                	addi	sp,sp,-32
  101c9a:	c84a                	sw	s2,16(sp)
  101c9c:	ce06                	sw	ra,28(sp)
  101c9e:	cc22                	sw	s0,24(sp)
  101ca0:	ca26                	sw	s1,20(sp)
  101ca2:	c64e                	sw	s3,12(sp)
  101ca4:	892a                	mv	s2,a0
  101ca6:	e391                	bnez	a5,101caa <__sfp+0x1a>
  101ca8:	374d                	jal	101c4a <global_stdio_init.part.0>
  101caa:	001044b7          	lui	s1,0x104
  101cae:	ac848493          	addi	s1,s1,-1336 # 103ac8 <__sglue>
  101cb2:	4991                	li	s3,4
  101cb4:	4480                	lw	s0,8(s1)
  101cb6:	40dc                	lw	a5,4(s1)
  101cb8:	17fd                	addi	a5,a5,-1
  101cba:	0207d163          	bgez	a5,101cdc <__sfp+0x4c>
  101cbe:	409c                	lw	a5,0(s1)
  101cc0:	e7d9                	bnez	a5,101d4e <__sfp+0xbe>
  101cc2:	1ac00593          	li	a1,428
  101cc6:	854a                	mv	a0,s2
  101cc8:	33f000ef          	jal	ra,102806 <_malloc_r>
  101ccc:	842a                	mv	s0,a0
  101cce:	e525                	bnez	a0,101d36 <__sfp+0xa6>
  101cd0:	0004a023          	sw	zero,0(s1)
  101cd4:	47b1                	li	a5,12
  101cd6:	00f92023          	sw	a5,0(s2)
  101cda:	a099                	j	101d20 <__sfp+0x90>
  101cdc:	00c41703          	lh	a4,12(s0)
  101ce0:	eb21                	bnez	a4,101d30 <__sfp+0xa0>
  101ce2:	77c1                	lui	a5,0xffff0
  101ce4:	0785                	addi	a5,a5,1
  101ce6:	06042223          	sw	zero,100(s0)
  101cea:	00042023          	sw	zero,0(s0)
  101cee:	00042223          	sw	zero,4(s0)
  101cf2:	00042423          	sw	zero,8(s0)
  101cf6:	c45c                	sw	a5,12(s0)
  101cf8:	00042823          	sw	zero,16(s0)
  101cfc:	00042a23          	sw	zero,20(s0)
  101d00:	00042c23          	sw	zero,24(s0)
  101d04:	4621                	li	a2,8
  101d06:	4581                	li	a1,0
  101d08:	05c40513          	addi	a0,s0,92
  101d0c:	039000ef          	jal	ra,102544 <memset>
  101d10:	02042823          	sw	zero,48(s0)
  101d14:	02042a23          	sw	zero,52(s0)
  101d18:	04042223          	sw	zero,68(s0)
  101d1c:	04042423          	sw	zero,72(s0)
  101d20:	40f2                	lw	ra,28(sp)
  101d22:	8522                	mv	a0,s0
  101d24:	4462                	lw	s0,24(sp)
  101d26:	44d2                	lw	s1,20(sp)
  101d28:	4942                	lw	s2,16(sp)
  101d2a:	49b2                	lw	s3,12(sp)
  101d2c:	6105                	addi	sp,sp,32
  101d2e:	8082                	ret
  101d30:	06840413          	addi	s0,s0,104
  101d34:	b751                	j	101cb8 <__sfp+0x28>
  101d36:	00052023          	sw	zero,0(a0)
  101d3a:	01352223          	sw	s3,4(a0)
  101d3e:	0531                	addi	a0,a0,12
  101d40:	c408                	sw	a0,8(s0)
  101d42:	1a000613          	li	a2,416
  101d46:	4581                	li	a1,0
  101d48:	7fc000ef          	jal	ra,102544 <memset>
  101d4c:	c080                	sw	s0,0(s1)
  101d4e:	4084                	lw	s1,0(s1)
  101d50:	b795                	j	101cb4 <__sfp+0x24>

00101d52 <__sinit>:
  101d52:	595c                	lw	a5,52(a0)
  101d54:	ef81                	bnez	a5,101d6c <__sinit+0x1a>
  101d56:	001027b7          	lui	a5,0x102
  101d5a:	bfc78793          	addi	a5,a5,-1028 # 101bfc <cleanup_stdio>
  101d5e:	d95c                	sw	a5,52(a0)
  101d60:	001047b7          	lui	a5,0x104
  101d64:	0587a783          	lw	a5,88(a5) # 104058 <__stdio_exit_handler>
  101d68:	e391                	bnez	a5,101d6c <__sinit+0x1a>
  101d6a:	b5c5                	j	101c4a <global_stdio_init.part.0>
  101d6c:	8082                	ret

00101d6e <__sfp_lock_acquire>:
  101d6e:	8082                	ret

00101d70 <__sfp_lock_release>:
  101d70:	8082                	ret

00101d72 <__fp_lock_all>:
  101d72:	00104637          	lui	a2,0x104
  101d76:	001025b7          	lui	a1,0x102
  101d7a:	ac860613          	addi	a2,a2,-1336 # 103ac8 <__sglue>
  101d7e:	b7458593          	addi	a1,a1,-1164 # 101b74 <__fp_lock>
  101d82:	4501                	li	a0,0
  101d84:	a4c5                	j	102064 <_fwalk_sglue>

00101d86 <__fp_unlock_all>:
  101d86:	00104637          	lui	a2,0x104
  101d8a:	001025b7          	lui	a1,0x102
  101d8e:	ac860613          	addi	a2,a2,-1336 # 103ac8 <__sglue>
  101d92:	c8c58593          	addi	a1,a1,-884 # 101c8c <__fp_unlock>
  101d96:	4501                	li	a0,0
  101d98:	a4f1                	j	102064 <_fwalk_sglue>

00101d9a <__sfvwrite_r>:
  101d9a:	461c                	lw	a5,8(a2)
  101d9c:	e781                	bnez	a5,101da4 <__sfvwrite_r+0xa>
  101d9e:	4781                	li	a5,0
  101da0:	853e                	mv	a0,a5
  101da2:	8082                	ret
  101da4:	00c5d783          	lhu	a5,12(a1)
  101da8:	715d                	addi	sp,sp,-80
  101daa:	c4a2                	sw	s0,72(sp)
  101dac:	c0ca                	sw	s2,64(sp)
  101dae:	dc52                	sw	s4,56(sp)
  101db0:	c686                	sw	ra,76(sp)
  101db2:	c2a6                	sw	s1,68(sp)
  101db4:	de4e                	sw	s3,60(sp)
  101db6:	da56                	sw	s5,52(sp)
  101db8:	d85a                	sw	s6,48(sp)
  101dba:	d65e                	sw	s7,44(sp)
  101dbc:	d462                	sw	s8,40(sp)
  101dbe:	d266                	sw	s9,36(sp)
  101dc0:	d06a                	sw	s10,32(sp)
  101dc2:	ce6e                	sw	s11,28(sp)
  101dc4:	8ba1                	andi	a5,a5,8
  101dc6:	892a                	mv	s2,a0
  101dc8:	842e                	mv	s0,a1
  101dca:	8a32                	mv	s4,a2
  101dcc:	cbd9                	beqz	a5,101e62 <__sfvwrite_r+0xc8>
  101dce:	499c                	lw	a5,16(a1)
  101dd0:	cbc9                	beqz	a5,101e62 <__sfvwrite_r+0xc8>
  101dd2:	00c45783          	lhu	a5,12(s0)
  101dd6:	000a2983          	lw	s3,0(s4)
  101dda:	0027f713          	andi	a4,a5,2
  101dde:	0e071363          	bnez	a4,101ec4 <__sfvwrite_r+0x12a>
  101de2:	8b85                	andi	a5,a5,1
  101de4:	14078d63          	beqz	a5,101f3e <__sfvwrite_r+0x1a4>
  101de8:	4b81                	li	s7,0
  101dea:	4501                	li	a0,0
  101dec:	4b01                	li	s6,0
  101dee:	4a81                	li	s5,0
  101df0:	220a8c63          	beqz	s5,102028 <__sfvwrite_r+0x28e>
  101df4:	e919                	bnez	a0,101e0a <__sfvwrite_r+0x70>
  101df6:	8656                	mv	a2,s5
  101df8:	45a9                	li	a1,10
  101dfa:	855a                	mv	a0,s6
  101dfc:	2395                	jal	102360 <memchr>
  101dfe:	001a8b93          	addi	s7,s5,1
  101e02:	c501                	beqz	a0,101e0a <__sfvwrite_r+0x70>
  101e04:	0505                	addi	a0,a0,1
  101e06:	41650bb3          	sub	s7,a0,s6
  101e0a:	8c5e                	mv	s8,s7
  101e0c:	017af363          	bgeu	s5,s7,101e12 <__sfvwrite_r+0x78>
  101e10:	8c56                	mv	s8,s5
  101e12:	4008                	lw	a0,0(s0)
  101e14:	481c                	lw	a5,16(s0)
  101e16:	4854                	lw	a3,20(s0)
  101e18:	20a7ff63          	bgeu	a5,a0,102036 <__sfvwrite_r+0x29c>
  101e1c:	4404                	lw	s1,8(s0)
  101e1e:	94b6                	add	s1,s1,a3
  101e20:	2184db63          	bge	s1,s8,102036 <__sfvwrite_r+0x29c>
  101e24:	85da                	mv	a1,s6
  101e26:	8626                	mv	a2,s1
  101e28:	2ddd                	jal	10251e <memmove>
  101e2a:	401c                	lw	a5,0(s0)
  101e2c:	85a2                	mv	a1,s0
  101e2e:	854a                	mv	a0,s2
  101e30:	97a6                	add	a5,a5,s1
  101e32:	c01c                	sw	a5,0(s0)
  101e34:	31ed                	jal	101b1e <_fflush_r>
  101e36:	0e051c63          	bnez	a0,101f2e <__sfvwrite_r+0x194>
  101e3a:	409b8bb3          	sub	s7,s7,s1
  101e3e:	4505                	li	a0,1
  101e40:	000b9663          	bnez	s7,101e4c <__sfvwrite_r+0xb2>
  101e44:	85a2                	mv	a1,s0
  101e46:	854a                	mv	a0,s2
  101e48:	39d9                	jal	101b1e <_fflush_r>
  101e4a:	e175                	bnez	a0,101f2e <__sfvwrite_r+0x194>
  101e4c:	008a2603          	lw	a2,8(s4)
  101e50:	9b26                	add	s6,s6,s1
  101e52:	409a8ab3          	sub	s5,s5,s1
  101e56:	409604b3          	sub	s1,a2,s1
  101e5a:	009a2423          	sw	s1,8(s4)
  101e5e:	f8c9                	bnez	s1,101df0 <__sfvwrite_r+0x56>
  101e60:	a089                	j	101ea2 <__sfvwrite_r+0x108>
  101e62:	85a2                	mv	a1,s0
  101e64:	854a                	mv	a0,s2
  101e66:	2615                	jal	10218a <__swsetup_r>
  101e68:	57fd                	li	a5,-1
  101e6a:	d525                	beqz	a0,101dd2 <__sfvwrite_r+0x38>
  101e6c:	a825                	j	101ea4 <__sfvwrite_r+0x10a>
  101e6e:	0009aa83          	lw	s5,0(s3)
  101e72:	0049a483          	lw	s1,4(s3)
  101e76:	09a1                	addi	s3,s3,8
  101e78:	d8fd                	beqz	s1,101e6e <__sfvwrite_r+0xd4>
  101e7a:	86a6                	mv	a3,s1
  101e7c:	009b7363          	bgeu	s6,s1,101e82 <__sfvwrite_r+0xe8>
  101e80:	86da                	mv	a3,s6
  101e82:	505c                	lw	a5,36(s0)
  101e84:	4c4c                	lw	a1,28(s0)
  101e86:	8656                	mv	a2,s5
  101e88:	854a                	mv	a0,s2
  101e8a:	9782                	jalr	a5
  101e8c:	0aa05163          	blez	a0,101f2e <__sfvwrite_r+0x194>
  101e90:	008a2783          	lw	a5,8(s4)
  101e94:	9aaa                	add	s5,s5,a0
  101e96:	8c89                	sub	s1,s1,a0
  101e98:	40a78533          	sub	a0,a5,a0
  101e9c:	00aa2423          	sw	a0,8(s4)
  101ea0:	fd61                	bnez	a0,101e78 <__sfvwrite_r+0xde>
  101ea2:	4781                	li	a5,0
  101ea4:	40b6                	lw	ra,76(sp)
  101ea6:	4426                	lw	s0,72(sp)
  101ea8:	4496                	lw	s1,68(sp)
  101eaa:	4906                	lw	s2,64(sp)
  101eac:	59f2                	lw	s3,60(sp)
  101eae:	5a62                	lw	s4,56(sp)
  101eb0:	5ad2                	lw	s5,52(sp)
  101eb2:	5b42                	lw	s6,48(sp)
  101eb4:	5bb2                	lw	s7,44(sp)
  101eb6:	5c22                	lw	s8,40(sp)
  101eb8:	5c92                	lw	s9,36(sp)
  101eba:	5d02                	lw	s10,32(sp)
  101ebc:	4df2                	lw	s11,28(sp)
  101ebe:	853e                	mv	a0,a5
  101ec0:	6161                	addi	sp,sp,80
  101ec2:	8082                	ret
  101ec4:	80000b37          	lui	s6,0x80000
  101ec8:	4a81                	li	s5,0
  101eca:	4481                	li	s1,0
  101ecc:	c00b4b13          	xori	s6,s6,-1024
  101ed0:	b765                	j	101e78 <__sfvwrite_r+0xde>
  101ed2:	0009aa83          	lw	s5,0(s3)
  101ed6:	0049ad03          	lw	s10,4(s3)
  101eda:	09a1                	addi	s3,s3,8
  101edc:	fe0d0be3          	beqz	s10,101ed2 <__sfvwrite_r+0x138>
  101ee0:	00c45783          	lhu	a5,12(s0)
  101ee4:	4410                	lw	a2,8(s0)
  101ee6:	4008                	lw	a0,0(s0)
  101ee8:	2007f713          	andi	a4,a5,512
  101eec:	0e070463          	beqz	a4,101fd4 <__sfvwrite_r+0x23a>
  101ef0:	08cd6863          	bltu	s10,a2,101f80 <__sfvwrite_r+0x1e6>
  101ef4:	4807f713          	andi	a4,a5,1152
  101ef8:	c741                	beqz	a4,101f80 <__sfvwrite_r+0x1e6>
  101efa:	01442d83          	lw	s11,20(s0)
  101efe:	480c                	lw	a1,16(s0)
  101f00:	03bc0db3          	mul	s11,s8,s11
  101f04:	40b504b3          	sub	s1,a0,a1
  101f08:	00148713          	addi	a4,s1,1
  101f0c:	976a                	add	a4,a4,s10
  101f0e:	039dcdb3          	div	s11,s11,s9
  101f12:	00edf363          	bgeu	s11,a4,101f18 <__sfvwrite_r+0x17e>
  101f16:	8dba                	mv	s11,a4
  101f18:	4007f793          	andi	a5,a5,1024
  101f1c:	cfc1                	beqz	a5,101fb4 <__sfvwrite_r+0x21a>
  101f1e:	85ee                	mv	a1,s11
  101f20:	854a                	mv	a0,s2
  101f22:	0e5000ef          	jal	ra,102806 <_malloc_r>
  101f26:	e51d                	bnez	a0,101f54 <__sfvwrite_r+0x1ba>
  101f28:	47b1                	li	a5,12
  101f2a:	00f92023          	sw	a5,0(s2)
  101f2e:	00c45783          	lhu	a5,12(s0)
  101f32:	0407e793          	ori	a5,a5,64
  101f36:	00f41623          	sh	a5,12(s0)
  101f3a:	57fd                	li	a5,-1
  101f3c:	b7a5                	j	101ea4 <__sfvwrite_r+0x10a>
  101f3e:	80000b37          	lui	s6,0x80000
  101f42:	ffeb4b93          	xori	s7,s6,-2
  101f46:	4a81                	li	s5,0
  101f48:	4d01                	li	s10,0
  101f4a:	fffb4b13          	not	s6,s6
  101f4e:	4c0d                	li	s8,3
  101f50:	4c89                	li	s9,2
  101f52:	b769                	j	101edc <__sfvwrite_r+0x142>
  101f54:	480c                	lw	a1,16(s0)
  101f56:	8626                	mv	a2,s1
  101f58:	c62a                	sw	a0,12(sp)
  101f5a:	2bed                	jal	102554 <memcpy>
  101f5c:	00c45703          	lhu	a4,12(s0)
  101f60:	47b2                	lw	a5,12(sp)
  101f62:	b7f77713          	andi	a4,a4,-1153
  101f66:	08076713          	ori	a4,a4,128
  101f6a:	00e41623          	sh	a4,12(s0)
  101f6e:	c81c                	sw	a5,16(s0)
  101f70:	97a6                	add	a5,a5,s1
  101f72:	409d84b3          	sub	s1,s11,s1
  101f76:	c01c                	sw	a5,0(s0)
  101f78:	01b42a23          	sw	s11,20(s0)
  101f7c:	866a                	mv	a2,s10
  101f7e:	c404                	sw	s1,8(s0)
  101f80:	84ea                	mv	s1,s10
  101f82:	00cd7363          	bgeu	s10,a2,101f88 <__sfvwrite_r+0x1ee>
  101f86:	866a                	mv	a2,s10
  101f88:	4008                	lw	a0,0(s0)
  101f8a:	85d6                	mv	a1,s5
  101f8c:	c632                	sw	a2,12(sp)
  101f8e:	2b41                	jal	10251e <memmove>
  101f90:	441c                	lw	a5,8(s0)
  101f92:	4632                	lw	a2,12(sp)
  101f94:	8f91                	sub	a5,a5,a2
  101f96:	c41c                	sw	a5,8(s0)
  101f98:	401c                	lw	a5,0(s0)
  101f9a:	963e                	add	a2,a2,a5
  101f9c:	c010                	sw	a2,0(s0)
  101f9e:	008a2503          	lw	a0,8(s4)
  101fa2:	9aa6                	add	s5,s5,s1
  101fa4:	409d0d33          	sub	s10,s10,s1
  101fa8:	409504b3          	sub	s1,a0,s1
  101fac:	009a2423          	sw	s1,8(s4)
  101fb0:	f495                	bnez	s1,101edc <__sfvwrite_r+0x142>
  101fb2:	bdc5                	j	101ea2 <__sfvwrite_r+0x108>
  101fb4:	866e                	mv	a2,s11
  101fb6:	854a                	mv	a0,s2
  101fb8:	55b000ef          	jal	ra,102d12 <_realloc_r>
  101fbc:	87aa                	mv	a5,a0
  101fbe:	f945                	bnez	a0,101f6e <__sfvwrite_r+0x1d4>
  101fc0:	480c                	lw	a1,16(s0)
  101fc2:	854a                	mv	a0,s2
  101fc4:	2d59                	jal	10265a <_free_r>
  101fc6:	00c45783          	lhu	a5,12(s0)
  101fca:	f7f7f793          	andi	a5,a5,-129
  101fce:	00f41623          	sh	a5,12(s0)
  101fd2:	bf99                	j	101f28 <__sfvwrite_r+0x18e>
  101fd4:	481c                	lw	a5,16(s0)
  101fd6:	00a7e563          	bltu	a5,a0,101fe0 <__sfvwrite_r+0x246>
  101fda:	4854                	lw	a3,20(s0)
  101fdc:	02dd7563          	bgeu	s10,a3,102006 <__sfvwrite_r+0x26c>
  101fe0:	84b2                	mv	s1,a2
  101fe2:	00cd7363          	bgeu	s10,a2,101fe8 <__sfvwrite_r+0x24e>
  101fe6:	84ea                	mv	s1,s10
  101fe8:	8626                	mv	a2,s1
  101fea:	85d6                	mv	a1,s5
  101fec:	2b0d                	jal	10251e <memmove>
  101fee:	441c                	lw	a5,8(s0)
  101ff0:	4018                	lw	a4,0(s0)
  101ff2:	8f85                	sub	a5,a5,s1
  101ff4:	9726                	add	a4,a4,s1
  101ff6:	c41c                	sw	a5,8(s0)
  101ff8:	c018                	sw	a4,0(s0)
  101ffa:	f3d5                	bnez	a5,101f9e <__sfvwrite_r+0x204>
  101ffc:	85a2                	mv	a1,s0
  101ffe:	854a                	mv	a0,s2
  102000:	3e39                	jal	101b1e <_fflush_r>
  102002:	dd51                	beqz	a0,101f9e <__sfvwrite_r+0x204>
  102004:	b72d                	j	101f2e <__sfvwrite_r+0x194>
  102006:	87da                	mv	a5,s6
  102008:	01abe363          	bltu	s7,s10,10200e <__sfvwrite_r+0x274>
  10200c:	87ea                	mv	a5,s10
  10200e:	02d7c7b3          	div	a5,a5,a3
  102012:	5058                	lw	a4,36(s0)
  102014:	4c4c                	lw	a1,28(s0)
  102016:	8656                	mv	a2,s5
  102018:	854a                	mv	a0,s2
  10201a:	02d786b3          	mul	a3,a5,a3
  10201e:	9702                	jalr	a4
  102020:	84aa                	mv	s1,a0
  102022:	f6a04ee3          	bgtz	a0,101f9e <__sfvwrite_r+0x204>
  102026:	b721                	j	101f2e <__sfvwrite_r+0x194>
  102028:	0009ab03          	lw	s6,0(s3)
  10202c:	0049aa83          	lw	s5,4(s3)
  102030:	4501                	li	a0,0
  102032:	09a1                	addi	s3,s3,8
  102034:	bb75                	j	101df0 <__sfvwrite_r+0x56>
  102036:	00dc4b63          	blt	s8,a3,10204c <__sfvwrite_r+0x2b2>
  10203a:	505c                	lw	a5,36(s0)
  10203c:	4c4c                	lw	a1,28(s0)
  10203e:	865a                	mv	a2,s6
  102040:	854a                	mv	a0,s2
  102042:	9782                	jalr	a5
  102044:	84aa                	mv	s1,a0
  102046:	dea04ae3          	bgtz	a0,101e3a <__sfvwrite_r+0xa0>
  10204a:	b5d5                	j	101f2e <__sfvwrite_r+0x194>
  10204c:	8662                	mv	a2,s8
  10204e:	85da                	mv	a1,s6
  102050:	21f9                	jal	10251e <memmove>
  102052:	441c                	lw	a5,8(s0)
  102054:	84e2                	mv	s1,s8
  102056:	418787b3          	sub	a5,a5,s8
  10205a:	c41c                	sw	a5,8(s0)
  10205c:	401c                	lw	a5,0(s0)
  10205e:	97e2                	add	a5,a5,s8
  102060:	c01c                	sw	a5,0(s0)
  102062:	bbe1                	j	101e3a <__sfvwrite_r+0xa0>

00102064 <_fwalk_sglue>:
  102064:	7179                	addi	sp,sp,-48
  102066:	d422                	sw	s0,40(sp)
  102068:	d04a                	sw	s2,32(sp)
  10206a:	ce4e                	sw	s3,28(sp)
  10206c:	cc52                	sw	s4,24(sp)
  10206e:	c85a                	sw	s6,16(sp)
  102070:	c65e                	sw	s7,12(sp)
  102072:	d606                	sw	ra,44(sp)
  102074:	d226                	sw	s1,36(sp)
  102076:	ca56                	sw	s5,20(sp)
  102078:	89aa                	mv	s3,a0
  10207a:	8a2e                	mv	s4,a1
  10207c:	8432                	mv	s0,a2
  10207e:	4901                	li	s2,0
  102080:	4b05                	li	s6,1
  102082:	5bfd                	li	s7,-1
  102084:	4404                	lw	s1,8(s0)
  102086:	00442a83          	lw	s5,4(s0)
  10208a:	1afd                	addi	s5,s5,-1
  10208c:	020ad063          	bgez	s5,1020ac <_fwalk_sglue+0x48>
  102090:	4000                	lw	s0,0(s0)
  102092:	f86d                	bnez	s0,102084 <_fwalk_sglue+0x20>
  102094:	50b2                	lw	ra,44(sp)
  102096:	5422                	lw	s0,40(sp)
  102098:	5492                	lw	s1,36(sp)
  10209a:	49f2                	lw	s3,28(sp)
  10209c:	4a62                	lw	s4,24(sp)
  10209e:	4ad2                	lw	s5,20(sp)
  1020a0:	4b42                	lw	s6,16(sp)
  1020a2:	4bb2                	lw	s7,12(sp)
  1020a4:	854a                	mv	a0,s2
  1020a6:	5902                	lw	s2,32(sp)
  1020a8:	6145                	addi	sp,sp,48
  1020aa:	8082                	ret
  1020ac:	00c4d783          	lhu	a5,12(s1)
  1020b0:	00fb7b63          	bgeu	s6,a5,1020c6 <_fwalk_sglue+0x62>
  1020b4:	00e49783          	lh	a5,14(s1)
  1020b8:	01778763          	beq	a5,s7,1020c6 <_fwalk_sglue+0x62>
  1020bc:	85a6                	mv	a1,s1
  1020be:	854e                	mv	a0,s3
  1020c0:	9a02                	jalr	s4
  1020c2:	00a96933          	or	s2,s2,a0
  1020c6:	06848493          	addi	s1,s1,104
  1020ca:	b7c1                	j	10208a <_fwalk_sglue+0x26>

001020cc <__sread>:
  1020cc:	1141                	addi	sp,sp,-16
  1020ce:	c422                	sw	s0,8(sp)
  1020d0:	842e                	mv	s0,a1
  1020d2:	00e59583          	lh	a1,14(a1)
  1020d6:	c606                	sw	ra,12(sp)
  1020d8:	2ef9                	jal	1024b6 <_read_r>
  1020da:	00054963          	bltz	a0,1020ec <__sread+0x20>
  1020de:	483c                	lw	a5,80(s0)
  1020e0:	97aa                	add	a5,a5,a0
  1020e2:	c83c                	sw	a5,80(s0)
  1020e4:	40b2                	lw	ra,12(sp)
  1020e6:	4422                	lw	s0,8(sp)
  1020e8:	0141                	addi	sp,sp,16
  1020ea:	8082                	ret
  1020ec:	00c45783          	lhu	a5,12(s0)
  1020f0:	777d                	lui	a4,0xfffff
  1020f2:	177d                	addi	a4,a4,-1
  1020f4:	8ff9                	and	a5,a5,a4
  1020f6:	00f41623          	sh	a5,12(s0)
  1020fa:	b7ed                	j	1020e4 <__sread+0x18>

001020fc <__seofread>:
  1020fc:	4501                	li	a0,0
  1020fe:	8082                	ret

00102100 <__swrite>:
  102100:	00c5d783          	lhu	a5,12(a1)
  102104:	1101                	addi	sp,sp,-32
  102106:	cc22                	sw	s0,24(sp)
  102108:	ca26                	sw	s1,20(sp)
  10210a:	c84a                	sw	s2,16(sp)
  10210c:	c64e                	sw	s3,12(sp)
  10210e:	ce06                	sw	ra,28(sp)
  102110:	1007f793          	andi	a5,a5,256
  102114:	84aa                	mv	s1,a0
  102116:	842e                	mv	s0,a1
  102118:	8932                	mv	s2,a2
  10211a:	89b6                	mv	s3,a3
  10211c:	c791                	beqz	a5,102128 <__swrite+0x28>
  10211e:	00e59583          	lh	a1,14(a1)
  102122:	4689                	li	a3,2
  102124:	4601                	li	a2,0
  102126:	2eb1                	jal	102482 <_lseek_r>
  102128:	00c45783          	lhu	a5,12(s0)
  10212c:	777d                	lui	a4,0xfffff
  10212e:	177d                	addi	a4,a4,-1
  102130:	8ff9                	and	a5,a5,a4
  102132:	00e41583          	lh	a1,14(s0)
  102136:	00f41623          	sh	a5,12(s0)
  10213a:	4462                	lw	s0,24(sp)
  10213c:	40f2                	lw	ra,28(sp)
  10213e:	86ce                	mv	a3,s3
  102140:	864a                	mv	a2,s2
  102142:	49b2                	lw	s3,12(sp)
  102144:	4942                	lw	s2,16(sp)
  102146:	8526                	mv	a0,s1
  102148:	44d2                	lw	s1,20(sp)
  10214a:	6105                	addi	sp,sp,32
  10214c:	ae79                	j	1024ea <_write_r>

0010214e <__sseek>:
  10214e:	1141                	addi	sp,sp,-16
  102150:	c422                	sw	s0,8(sp)
  102152:	842e                	mv	s0,a1
  102154:	00e59583          	lh	a1,14(a1)
  102158:	c606                	sw	ra,12(sp)
  10215a:	2625                	jal	102482 <_lseek_r>
  10215c:	57fd                	li	a5,-1
  10215e:	00c45703          	lhu	a4,12(s0)
  102162:	00f51b63          	bne	a0,a5,102178 <__sseek+0x2a>
  102166:	77fd                	lui	a5,0xfffff
  102168:	17fd                	addi	a5,a5,-1
  10216a:	8ff9                	and	a5,a5,a4
  10216c:	00f41623          	sh	a5,12(s0)
  102170:	40b2                	lw	ra,12(sp)
  102172:	4422                	lw	s0,8(sp)
  102174:	0141                	addi	sp,sp,16
  102176:	8082                	ret
  102178:	6785                	lui	a5,0x1
  10217a:	8fd9                	or	a5,a5,a4
  10217c:	00f41623          	sh	a5,12(s0)
  102180:	c828                	sw	a0,80(s0)
  102182:	b7fd                	j	102170 <__sseek+0x22>

00102184 <__sclose>:
  102184:	00e59583          	lh	a1,14(a1)
  102188:	ac89                	j	1023da <_close_r>

0010218a <__swsetup_r>:
  10218a:	1141                	addi	sp,sp,-16
  10218c:	001047b7          	lui	a5,0x104
  102190:	c226                	sw	s1,4(sp)
  102192:	84aa                	mv	s1,a0
  102194:	99c7a503          	lw	a0,-1636(a5) # 10399c <_impure_ptr>
  102198:	c422                	sw	s0,8(sp)
  10219a:	c606                	sw	ra,12(sp)
  10219c:	842e                	mv	s0,a1
  10219e:	c501                	beqz	a0,1021a6 <__swsetup_r+0x1c>
  1021a0:	595c                	lw	a5,52(a0)
  1021a2:	e391                	bnez	a5,1021a6 <__swsetup_r+0x1c>
  1021a4:	367d                	jal	101d52 <__sinit>
  1021a6:	00c41783          	lh	a5,12(s0)
  1021aa:	01079713          	slli	a4,a5,0x10
  1021ae:	0087f693          	andi	a3,a5,8
  1021b2:	8341                	srli	a4,a4,0x10
  1021b4:	eaa1                	bnez	a3,102204 <__swsetup_r+0x7a>
  1021b6:	01077693          	andi	a3,a4,16
  1021ba:	ea89                	bnez	a3,1021cc <__swsetup_r+0x42>
  1021bc:	4725                	li	a4,9
  1021be:	c098                	sw	a4,0(s1)
  1021c0:	0407e793          	ori	a5,a5,64
  1021c4:	00f41623          	sh	a5,12(s0)
  1021c8:	557d                	li	a0,-1
  1021ca:	a8bd                	j	102248 <__swsetup_r+0xbe>
  1021cc:	8b11                	andi	a4,a4,4
  1021ce:	c70d                	beqz	a4,1021f8 <__swsetup_r+0x6e>
  1021d0:	580c                	lw	a1,48(s0)
  1021d2:	c989                	beqz	a1,1021e4 <__swsetup_r+0x5a>
  1021d4:	04040793          	addi	a5,s0,64
  1021d8:	00f58463          	beq	a1,a5,1021e0 <__swsetup_r+0x56>
  1021dc:	8526                	mv	a0,s1
  1021de:	29b5                	jal	10265a <_free_r>
  1021e0:	02042823          	sw	zero,48(s0)
  1021e4:	00c45783          	lhu	a5,12(s0)
  1021e8:	00042223          	sw	zero,4(s0)
  1021ec:	fdb7f793          	andi	a5,a5,-37
  1021f0:	00f41623          	sh	a5,12(s0)
  1021f4:	481c                	lw	a5,16(s0)
  1021f6:	c01c                	sw	a5,0(s0)
  1021f8:	00c45783          	lhu	a5,12(s0)
  1021fc:	0087e793          	ori	a5,a5,8
  102200:	00f41623          	sh	a5,12(s0)
  102204:	481c                	lw	a5,16(s0)
  102206:	ef89                	bnez	a5,102220 <__swsetup_r+0x96>
  102208:	00c45783          	lhu	a5,12(s0)
  10220c:	20000713          	li	a4,512
  102210:	2807f793          	andi	a5,a5,640
  102214:	00e78663          	beq	a5,a4,102220 <__swsetup_r+0x96>
  102218:	85a2                	mv	a1,s0
  10221a:	8526                	mv	a0,s1
  10221c:	7f5000ef          	jal	ra,103210 <__smakebuf_r>
  102220:	00c41783          	lh	a5,12(s0)
  102224:	01079713          	slli	a4,a5,0x10
  102228:	0017f693          	andi	a3,a5,1
  10222c:	8341                	srli	a4,a4,0x10
  10222e:	c295                	beqz	a3,102252 <__swsetup_r+0xc8>
  102230:	4854                	lw	a3,20(s0)
  102232:	00042423          	sw	zero,8(s0)
  102236:	40d006b3          	neg	a3,a3
  10223a:	cc14                	sw	a3,24(s0)
  10223c:	4814                	lw	a3,16(s0)
  10223e:	4501                	li	a0,0
  102240:	e681                	bnez	a3,102248 <__swsetup_r+0xbe>
  102242:	08077713          	andi	a4,a4,128
  102246:	ff2d                	bnez	a4,1021c0 <__swsetup_r+0x36>
  102248:	40b2                	lw	ra,12(sp)
  10224a:	4422                	lw	s0,8(sp)
  10224c:	4492                	lw	s1,4(sp)
  10224e:	0141                	addi	sp,sp,16
  102250:	8082                	ret
  102252:	00277693          	andi	a3,a4,2
  102256:	4601                	li	a2,0
  102258:	e291                	bnez	a3,10225c <__swsetup_r+0xd2>
  10225a:	4850                	lw	a2,20(s0)
  10225c:	c410                	sw	a2,8(s0)
  10225e:	bff9                	j	10223c <__swsetup_r+0xb2>

00102260 <__fputwc>:
  102260:	7179                	addi	sp,sp,-48
  102262:	d422                	sw	s0,40(sp)
  102264:	d04a                	sw	s2,32(sp)
  102266:	cc52                	sw	s4,24(sp)
  102268:	d606                	sw	ra,44(sp)
  10226a:	d226                	sw	s1,36(sp)
  10226c:	ce4e                	sw	s3,28(sp)
  10226e:	ca56                	sw	s5,20(sp)
  102270:	c85a                	sw	s6,16(sp)
  102272:	8a2a                	mv	s4,a0
  102274:	892e                	mv	s2,a1
  102276:	8432                	mv	s0,a2
  102278:	22a9                	jal	1023c2 <__locale_mb_cur_max>
  10227a:	4785                	li	a5,1
  10227c:	02f51263          	bne	a0,a5,1022a0 <__fputwc+0x40>
  102280:	fff90793          	addi	a5,s2,-1
  102284:	0fe00713          	li	a4,254
  102288:	00f76c63          	bltu	a4,a5,1022a0 <__fputwc+0x40>
  10228c:	01210623          	sb	s2,12(sp)
  102290:	4485                	li	s1,1
  102292:	4981                	li	s3,0
  102294:	5afd                	li	s5,-1
  102296:	4b29                	li	s6,10
  102298:	04999063          	bne	s3,s1,1022d8 <__fputwc+0x78>
  10229c:	84ca                	mv	s1,s2
  10229e:	a015                	j	1022c2 <__fputwc+0x62>
  1022a0:	05c40693          	addi	a3,s0,92
  1022a4:	864a                	mv	a2,s2
  1022a6:	006c                	addi	a1,sp,12
  1022a8:	8552                	mv	a0,s4
  1022aa:	621000ef          	jal	ra,1030ca <_wcrtomb_r>
  1022ae:	57fd                	li	a5,-1
  1022b0:	84aa                	mv	s1,a0
  1022b2:	fef510e3          	bne	a0,a5,102292 <__fputwc+0x32>
  1022b6:	00c45783          	lhu	a5,12(s0)
  1022ba:	0407e793          	ori	a5,a5,64
  1022be:	00f41623          	sh	a5,12(s0)
  1022c2:	50b2                	lw	ra,44(sp)
  1022c4:	5422                	lw	s0,40(sp)
  1022c6:	5902                	lw	s2,32(sp)
  1022c8:	49f2                	lw	s3,28(sp)
  1022ca:	4a62                	lw	s4,24(sp)
  1022cc:	4ad2                	lw	s5,20(sp)
  1022ce:	4b42                	lw	s6,16(sp)
  1022d0:	8526                	mv	a0,s1
  1022d2:	5492                	lw	s1,36(sp)
  1022d4:	6145                	addi	sp,sp,48
  1022d6:	8082                	ret
  1022d8:	007c                	addi	a5,sp,12
  1022da:	97ce                	add	a5,a5,s3
  1022dc:	0007c583          	lbu	a1,0(a5)
  1022e0:	441c                	lw	a5,8(s0)
  1022e2:	17fd                	addi	a5,a5,-1
  1022e4:	c41c                	sw	a5,8(s0)
  1022e6:	0007d763          	bgez	a5,1022f4 <__fputwc+0x94>
  1022ea:	4c18                	lw	a4,24(s0)
  1022ec:	00e7cc63          	blt	a5,a4,102304 <__fputwc+0xa4>
  1022f0:	01658a63          	beq	a1,s6,102304 <__fputwc+0xa4>
  1022f4:	401c                	lw	a5,0(s0)
  1022f6:	00178713          	addi	a4,a5,1
  1022fa:	c018                	sw	a4,0(s0)
  1022fc:	00b78023          	sb	a1,0(a5)
  102300:	0985                	addi	s3,s3,1
  102302:	bf59                	j	102298 <__fputwc+0x38>
  102304:	8622                	mv	a2,s0
  102306:	8552                	mv	a0,s4
  102308:	79b000ef          	jal	ra,1032a2 <__swbuf_r>
  10230c:	ff551ae3          	bne	a0,s5,102300 <__fputwc+0xa0>
  102310:	54fd                	li	s1,-1
  102312:	bf45                	j	1022c2 <__fputwc+0x62>

00102314 <_fputwc_r>:
  102314:	00c61783          	lh	a5,12(a2)
  102318:	01279713          	slli	a4,a5,0x12
  10231c:	00074a63          	bltz	a4,102330 <_fputwc_r+0x1c>
  102320:	5278                	lw	a4,100(a2)
  102322:	6689                	lui	a3,0x2
  102324:	8fd5                	or	a5,a5,a3
  102326:	00f61623          	sh	a5,12(a2)
  10232a:	6789                	lui	a5,0x2
  10232c:	8fd9                	or	a5,a5,a4
  10232e:	d27c                	sw	a5,100(a2)
  102330:	bf05                	j	102260 <__fputwc>

00102332 <fputwc>:
  102332:	1101                	addi	sp,sp,-32
  102334:	001047b7          	lui	a5,0x104
  102338:	cc22                	sw	s0,24(sp)
  10233a:	842a                	mv	s0,a0
  10233c:	99c7a503          	lw	a0,-1636(a5) # 10399c <_impure_ptr>
  102340:	ce06                	sw	ra,28(sp)
  102342:	862e                	mv	a2,a1
  102344:	c909                	beqz	a0,102356 <fputwc+0x24>
  102346:	595c                	lw	a5,52(a0)
  102348:	e799                	bnez	a5,102356 <fputwc+0x24>
  10234a:	c42a                	sw	a0,8(sp)
  10234c:	c62e                	sw	a1,12(sp)
  10234e:	a05ff0ef          	jal	ra,101d52 <__sinit>
  102352:	4632                	lw	a2,12(sp)
  102354:	4522                	lw	a0,8(sp)
  102356:	85a2                	mv	a1,s0
  102358:	4462                	lw	s0,24(sp)
  10235a:	40f2                	lw	ra,28(sp)
  10235c:	6105                	addi	sp,sp,32
  10235e:	bf5d                	j	102314 <_fputwc_r>

00102360 <memchr>:
  102360:	0ff5f593          	andi	a1,a1,255
  102364:	962a                	add	a2,a2,a0
  102366:	00c51463          	bne	a0,a2,10236e <memchr+0xe>
  10236a:	4501                	li	a0,0
  10236c:	8082                	ret
  10236e:	00054783          	lbu	a5,0(a0)
  102372:	feb78de3          	beq	a5,a1,10236c <memchr+0xc>
  102376:	0505                	addi	a0,a0,1
  102378:	b7fd                	j	102366 <memchr+0x6>

0010237a <_setlocale_r>:
  10237a:	1141                	addi	sp,sp,-16
  10237c:	c226                	sw	s1,4(sp)
  10237e:	c606                	sw	ra,12(sp)
  102380:	c422                	sw	s0,8(sp)
  102382:	001044b7          	lui	s1,0x104
  102386:	ea01                	bnez	a2,102396 <_setlocale_r+0x1c>
  102388:	98448513          	addi	a0,s1,-1660 # 103984 <_ctype_+0x12c>
  10238c:	40b2                	lw	ra,12(sp)
  10238e:	4422                	lw	s0,8(sp)
  102390:	4492                	lw	s1,4(sp)
  102392:	0141                	addi	sp,sp,16
  102394:	8082                	ret
  102396:	001045b7          	lui	a1,0x104
  10239a:	98858593          	addi	a1,a1,-1656 # 103988 <_ctype_+0x130>
  10239e:	8532                	mv	a0,a2
  1023a0:	8432                	mv	s0,a2
  1023a2:	2ae9                	jal	10257c <strcmp>
  1023a4:	d175                	beqz	a0,102388 <_setlocale_r+0xe>
  1023a6:	98448593          	addi	a1,s1,-1660
  1023aa:	8522                	mv	a0,s0
  1023ac:	2ac1                	jal	10257c <strcmp>
  1023ae:	dd69                	beqz	a0,102388 <_setlocale_r+0xe>
  1023b0:	001045b7          	lui	a1,0x104
  1023b4:	96c58593          	addi	a1,a1,-1684 # 10396c <_ctype_+0x114>
  1023b8:	8522                	mv	a0,s0
  1023ba:	22c9                	jal	10257c <strcmp>
  1023bc:	d571                	beqz	a0,102388 <_setlocale_r+0xe>
  1023be:	4501                	li	a0,0
  1023c0:	b7f1                	j	10238c <_setlocale_r+0x12>

001023c2 <__locale_mb_cur_max>:
  1023c2:	001047b7          	lui	a5,0x104
  1023c6:	bfc7c503          	lbu	a0,-1028(a5) # 103bfc <__global_locale+0x128>
  1023ca:	8082                	ret

001023cc <setlocale>:
  1023cc:	001047b7          	lui	a5,0x104
  1023d0:	862e                	mv	a2,a1
  1023d2:	85aa                	mv	a1,a0
  1023d4:	99c7a503          	lw	a0,-1636(a5) # 10399c <_impure_ptr>
  1023d8:	b74d                	j	10237a <_setlocale_r>

001023da <_close_r>:
  1023da:	1141                	addi	sp,sp,-16
  1023dc:	c422                	sw	s0,8(sp)
  1023de:	c226                	sw	s1,4(sp)
  1023e0:	842a                	mv	s0,a0
  1023e2:	001044b7          	lui	s1,0x104
  1023e6:	852e                	mv	a0,a1
  1023e8:	c606                	sw	ra,12(sp)
  1023ea:	0604a023          	sw	zero,96(s1) # 104060 <errno>
  1023ee:	00c010ef          	jal	ra,1033fa <_close>
  1023f2:	57fd                	li	a5,-1
  1023f4:	00f51663          	bne	a0,a5,102400 <_close_r+0x26>
  1023f8:	0604a783          	lw	a5,96(s1)
  1023fc:	c391                	beqz	a5,102400 <_close_r+0x26>
  1023fe:	c01c                	sw	a5,0(s0)
  102400:	40b2                	lw	ra,12(sp)
  102402:	4422                	lw	s0,8(sp)
  102404:	4492                	lw	s1,4(sp)
  102406:	0141                	addi	sp,sp,16
  102408:	8082                	ret

0010240a <_reclaim_reent>:
  10240a:	001047b7          	lui	a5,0x104
  10240e:	99c7a783          	lw	a5,-1636(a5) # 10399c <_impure_ptr>
  102412:	06a78763          	beq	a5,a0,102480 <_reclaim_reent+0x76>
  102416:	417c                	lw	a5,68(a0)
  102418:	1101                	addi	sp,sp,-32
  10241a:	cc22                	sw	s0,24(sp)
  10241c:	ca26                	sw	s1,20(sp)
  10241e:	c84a                	sw	s2,16(sp)
  102420:	ce06                	sw	ra,28(sp)
  102422:	c64e                	sw	s3,12(sp)
  102424:	842a                	mv	s0,a0
  102426:	4481                	li	s1,0
  102428:	08000913          	li	s2,128
  10242c:	e79d                	bnez	a5,10245a <_reclaim_reent+0x50>
  10242e:	5c0c                	lw	a1,56(s0)
  102430:	c199                	beqz	a1,102436 <_reclaim_reent+0x2c>
  102432:	8522                	mv	a0,s0
  102434:	241d                	jal	10265a <_free_r>
  102436:	446c                	lw	a1,76(s0)
  102438:	c199                	beqz	a1,10243e <_reclaim_reent+0x34>
  10243a:	8522                	mv	a0,s0
  10243c:	2c39                	jal	10265a <_free_r>
  10243e:	585c                	lw	a5,52(s0)
  102440:	cb8d                	beqz	a5,102472 <_reclaim_reent+0x68>
  102442:	8522                	mv	a0,s0
  102444:	4462                	lw	s0,24(sp)
  102446:	40f2                	lw	ra,28(sp)
  102448:	44d2                	lw	s1,20(sp)
  10244a:	4942                	lw	s2,16(sp)
  10244c:	49b2                	lw	s3,12(sp)
  10244e:	6105                	addi	sp,sp,32
  102450:	8782                	jr	a5
  102452:	95a6                	add	a1,a1,s1
  102454:	418c                	lw	a1,0(a1)
  102456:	e981                	bnez	a1,102466 <_reclaim_reent+0x5c>
  102458:	0491                	addi	s1,s1,4
  10245a:	406c                	lw	a1,68(s0)
  10245c:	ff249be3          	bne	s1,s2,102452 <_reclaim_reent+0x48>
  102460:	8522                	mv	a0,s0
  102462:	2ae5                	jal	10265a <_free_r>
  102464:	b7e9                	j	10242e <_reclaim_reent+0x24>
  102466:	0005a983          	lw	s3,0(a1)
  10246a:	8522                	mv	a0,s0
  10246c:	22fd                	jal	10265a <_free_r>
  10246e:	85ce                	mv	a1,s3
  102470:	b7dd                	j	102456 <_reclaim_reent+0x4c>
  102472:	40f2                	lw	ra,28(sp)
  102474:	4462                	lw	s0,24(sp)
  102476:	44d2                	lw	s1,20(sp)
  102478:	4942                	lw	s2,16(sp)
  10247a:	49b2                	lw	s3,12(sp)
  10247c:	6105                	addi	sp,sp,32
  10247e:	8082                	ret
  102480:	8082                	ret

00102482 <_lseek_r>:
  102482:	1141                	addi	sp,sp,-16
  102484:	c422                	sw	s0,8(sp)
  102486:	c226                	sw	s1,4(sp)
  102488:	842a                	mv	s0,a0
  10248a:	001044b7          	lui	s1,0x104
  10248e:	852e                	mv	a0,a1
  102490:	85b2                	mv	a1,a2
  102492:	8636                	mv	a2,a3
  102494:	c606                	sw	ra,12(sp)
  102496:	0604a023          	sw	zero,96(s1) # 104060 <errno>
  10249a:	7dd000ef          	jal	ra,103476 <_lseek>
  10249e:	57fd                	li	a5,-1
  1024a0:	00f51663          	bne	a0,a5,1024ac <_lseek_r+0x2a>
  1024a4:	0604a783          	lw	a5,96(s1)
  1024a8:	c391                	beqz	a5,1024ac <_lseek_r+0x2a>
  1024aa:	c01c                	sw	a5,0(s0)
  1024ac:	40b2                	lw	ra,12(sp)
  1024ae:	4422                	lw	s0,8(sp)
  1024b0:	4492                	lw	s1,4(sp)
  1024b2:	0141                	addi	sp,sp,16
  1024b4:	8082                	ret

001024b6 <_read_r>:
  1024b6:	1141                	addi	sp,sp,-16
  1024b8:	c422                	sw	s0,8(sp)
  1024ba:	c226                	sw	s1,4(sp)
  1024bc:	842a                	mv	s0,a0
  1024be:	001044b7          	lui	s1,0x104
  1024c2:	852e                	mv	a0,a1
  1024c4:	85b2                	mv	a1,a2
  1024c6:	8636                	mv	a2,a3
  1024c8:	c606                	sw	ra,12(sp)
  1024ca:	0604a023          	sw	zero,96(s1) # 104060 <errno>
  1024ce:	7d1000ef          	jal	ra,10349e <_read>
  1024d2:	57fd                	li	a5,-1
  1024d4:	00f51663          	bne	a0,a5,1024e0 <_read_r+0x2a>
  1024d8:	0604a783          	lw	a5,96(s1)
  1024dc:	c391                	beqz	a5,1024e0 <_read_r+0x2a>
  1024de:	c01c                	sw	a5,0(s0)
  1024e0:	40b2                	lw	ra,12(sp)
  1024e2:	4422                	lw	s0,8(sp)
  1024e4:	4492                	lw	s1,4(sp)
  1024e6:	0141                	addi	sp,sp,16
  1024e8:	8082                	ret

001024ea <_write_r>:
  1024ea:	1141                	addi	sp,sp,-16
  1024ec:	c422                	sw	s0,8(sp)
  1024ee:	c226                	sw	s1,4(sp)
  1024f0:	842a                	mv	s0,a0
  1024f2:	001044b7          	lui	s1,0x104
  1024f6:	852e                	mv	a0,a1
  1024f8:	85b2                	mv	a1,a2
  1024fa:	8636                	mv	a2,a3
  1024fc:	c606                	sw	ra,12(sp)
  1024fe:	0604a023          	sw	zero,96(s1) # 104060 <errno>
  102502:	012010ef          	jal	ra,103514 <_write>
  102506:	57fd                	li	a5,-1
  102508:	00f51663          	bne	a0,a5,102514 <_write_r+0x2a>
  10250c:	0604a783          	lw	a5,96(s1)
  102510:	c391                	beqz	a5,102514 <_write_r+0x2a>
  102512:	c01c                	sw	a5,0(s0)
  102514:	40b2                	lw	ra,12(sp)
  102516:	4422                	lw	s0,8(sp)
  102518:	4492                	lw	s1,4(sp)
  10251a:	0141                	addi	sp,sp,16
  10251c:	8082                	ret

0010251e <memmove>:
  10251e:	c215                	beqz	a2,102542 <memmove+0x24>
  102520:	832a                	mv	t1,a0
  102522:	4685                	li	a3,1
  102524:	00b56763          	bltu	a0,a1,102532 <memmove+0x14>
  102528:	56fd                	li	a3,-1
  10252a:	fff60713          	addi	a4,a2,-1
  10252e:	933a                	add	t1,t1,a4
  102530:	95ba                	add	a1,a1,a4
  102532:	00058383          	lb	t2,0(a1)
  102536:	00730023          	sb	t2,0(t1)
  10253a:	167d                	addi	a2,a2,-1
  10253c:	9336                	add	t1,t1,a3
  10253e:	95b6                	add	a1,a1,a3
  102540:	fa6d                	bnez	a2,102532 <memmove+0x14>
  102542:	8082                	ret

00102544 <memset>:
  102544:	832a                	mv	t1,a0
  102546:	c611                	beqz	a2,102552 <memset+0xe>
  102548:	00b30023          	sb	a1,0(t1)
  10254c:	167d                	addi	a2,a2,-1
  10254e:	0305                	addi	t1,t1,1
  102550:	fe65                	bnez	a2,102548 <memset+0x4>
  102552:	8082                	ret

00102554 <memcpy>:
  102554:	832a                	mv	t1,a0
  102556:	ca09                	beqz	a2,102568 <memcpy+0x14>
  102558:	00058383          	lb	t2,0(a1)
  10255c:	00730023          	sb	t2,0(t1)
  102560:	167d                	addi	a2,a2,-1
  102562:	0305                	addi	t1,t1,1
  102564:	0585                	addi	a1,a1,1
  102566:	fa6d                	bnez	a2,102558 <memcpy+0x4>
  102568:	8082                	ret

0010256a <strlen>:
  10256a:	87aa                	mv	a5,a0
  10256c:	0007c703          	lbu	a4,0(a5)
  102570:	0785                	addi	a5,a5,1
  102572:	ff6d                	bnez	a4,10256c <strlen+0x2>
  102574:	40a78533          	sub	a0,a5,a0
  102578:	157d                	addi	a0,a0,-1
  10257a:	8082                	ret

0010257c <strcmp>:
  10257c:	00054603          	lbu	a2,0(a0)
  102580:	0005c683          	lbu	a3,0(a1)
  102584:	0505                	addi	a0,a0,1
  102586:	0585                	addi	a1,a1,1
  102588:	00d61363          	bne	a2,a3,10258e <strcmp+0x12>
  10258c:	fa65                	bnez	a2,10257c <strcmp>
  10258e:	40d60533          	sub	a0,a2,a3
  102592:	8082                	ret

00102594 <_malloc_trim_r>:
  102594:	1101                	addi	sp,sp,-32
  102596:	c64e                	sw	s3,12(sp)
  102598:	001049b7          	lui	s3,0x104
  10259c:	cc22                	sw	s0,24(sp)
  10259e:	ca26                	sw	s1,20(sp)
  1025a0:	c84a                	sw	s2,16(sp)
  1025a2:	c452                	sw	s4,8(sp)
  1025a4:	ce06                	sw	ra,28(sp)
  1025a6:	8a2e                	mv	s4,a1
  1025a8:	892a                	mv	s2,a0
  1025aa:	c4098993          	addi	s3,s3,-960 # 103c40 <__malloc_av_>
  1025ae:	2785                	jal	102d0e <__malloc_lock>
  1025b0:	0089a783          	lw	a5,8(s3)
  1025b4:	43c4                	lw	s1,4(a5)
  1025b6:	6785                	lui	a5,0x1
  1025b8:	fef78413          	addi	s0,a5,-17 # fef <_min_stack-0x11>
  1025bc:	98f1                	andi	s1,s1,-4
  1025be:	41440433          	sub	s0,s0,s4
  1025c2:	9426                	add	s0,s0,s1
  1025c4:	8031                	srli	s0,s0,0xc
  1025c6:	147d                	addi	s0,s0,-1
  1025c8:	0432                	slli	s0,s0,0xc
  1025ca:	00f45d63          	bge	s0,a5,1025e4 <_malloc_trim_r+0x50>
  1025ce:	854a                	mv	a0,s2
  1025d0:	2781                	jal	102d10 <__malloc_unlock>
  1025d2:	4501                	li	a0,0
  1025d4:	40f2                	lw	ra,28(sp)
  1025d6:	4462                	lw	s0,24(sp)
  1025d8:	44d2                	lw	s1,20(sp)
  1025da:	4942                	lw	s2,16(sp)
  1025dc:	49b2                	lw	s3,12(sp)
  1025de:	4a22                	lw	s4,8(sp)
  1025e0:	6105                	addi	sp,sp,32
  1025e2:	8082                	ret
  1025e4:	4581                	li	a1,0
  1025e6:	854a                	mv	a0,s2
  1025e8:	5e5000ef          	jal	ra,1033cc <_sbrk_r>
  1025ec:	0089a783          	lw	a5,8(s3)
  1025f0:	97a6                	add	a5,a5,s1
  1025f2:	fcf51ee3          	bne	a0,a5,1025ce <_malloc_trim_r+0x3a>
  1025f6:	408005b3          	neg	a1,s0
  1025fa:	854a                	mv	a0,s2
  1025fc:	5d1000ef          	jal	ra,1033cc <_sbrk_r>
  102600:	57fd                	li	a5,-1
  102602:	02f51a63          	bne	a0,a5,102636 <_malloc_trim_r+0xa2>
  102606:	4581                	li	a1,0
  102608:	854a                	mv	a0,s2
  10260a:	5c3000ef          	jal	ra,1033cc <_sbrk_r>
  10260e:	0089a703          	lw	a4,8(s3)
  102612:	46bd                	li	a3,15
  102614:	40e507b3          	sub	a5,a0,a4
  102618:	faf6dbe3          	bge	a3,a5,1025ce <_malloc_trim_r+0x3a>
  10261c:	001046b7          	lui	a3,0x104
  102620:	9a06a683          	lw	a3,-1632(a3) # 1039a0 <__malloc_sbrk_base>
  102624:	0017e793          	ori	a5,a5,1
  102628:	c35c                	sw	a5,4(a4)
  10262a:	8d15                	sub	a0,a0,a3
  10262c:	001046b7          	lui	a3,0x104
  102630:	1aa6a623          	sw	a0,428(a3) # 1041ac <__malloc_current_mallinfo>
  102634:	bf69                	j	1025ce <_malloc_trim_r+0x3a>
  102636:	0089a783          	lw	a5,8(s3)
  10263a:	8c81                	sub	s1,s1,s0
  10263c:	0014e493          	ori	s1,s1,1
  102640:	c3c4                	sw	s1,4(a5)
  102642:	001047b7          	lui	a5,0x104
  102646:	1ac78793          	addi	a5,a5,428 # 1041ac <__malloc_current_mallinfo>
  10264a:	4398                	lw	a4,0(a5)
  10264c:	854a                	mv	a0,s2
  10264e:	40870433          	sub	s0,a4,s0
  102652:	c380                	sw	s0,0(a5)
  102654:	2d75                	jal	102d10 <__malloc_unlock>
  102656:	4505                	li	a0,1
  102658:	bfb5                	j	1025d4 <_malloc_trim_r+0x40>

0010265a <_free_r>:
  10265a:	1a058563          	beqz	a1,102804 <_free_r+0x1aa>
  10265e:	1141                	addi	sp,sp,-16
  102660:	c422                	sw	s0,8(sp)
  102662:	c226                	sw	s1,4(sp)
  102664:	842a                	mv	s0,a0
  102666:	84ae                	mv	s1,a1
  102668:	c606                	sw	ra,12(sp)
  10266a:	2555                	jal	102d0e <__malloc_lock>
  10266c:	ffc4a583          	lw	a1,-4(s1)
  102670:	00104537          	lui	a0,0x104
  102674:	ff848613          	addi	a2,s1,-8
  102678:	ffe5f793          	andi	a5,a1,-2
  10267c:	c4050813          	addi	a6,a0,-960 # 103c40 <__malloc_av_>
  102680:	00f606b3          	add	a3,a2,a5
  102684:	42d8                	lw	a4,4(a3)
  102686:	00882803          	lw	a6,8(a6)
  10268a:	c4050513          	addi	a0,a0,-960
  10268e:	9b71                	andi	a4,a4,-4
  102690:	8985                	andi	a1,a1,1
  102692:	04d81263          	bne	a6,a3,1026d6 <_free_r+0x7c>
  102696:	97ba                	add	a5,a5,a4
  102698:	e989                	bnez	a1,1026aa <_free_r+0x50>
  10269a:	ff84a703          	lw	a4,-8(s1)
  10269e:	8e19                	sub	a2,a2,a4
  1026a0:	4614                	lw	a3,8(a2)
  1026a2:	97ba                	add	a5,a5,a4
  1026a4:	4658                	lw	a4,12(a2)
  1026a6:	c6d8                	sw	a4,12(a3)
  1026a8:	c714                	sw	a3,8(a4)
  1026aa:	0017e713          	ori	a4,a5,1
  1026ae:	c258                	sw	a4,4(a2)
  1026b0:	00104737          	lui	a4,0x104
  1026b4:	9a472703          	lw	a4,-1628(a4) # 1039a4 <__malloc_trim_threshold>
  1026b8:	c510                	sw	a2,8(a0)
  1026ba:	00e7e863          	bltu	a5,a4,1026ca <_free_r+0x70>
  1026be:	001047b7          	lui	a5,0x104
  1026c2:	06c7a583          	lw	a1,108(a5) # 10406c <__malloc_top_pad>
  1026c6:	8522                	mv	a0,s0
  1026c8:	35f1                	jal	102594 <_malloc_trim_r>
  1026ca:	8522                	mv	a0,s0
  1026cc:	4422                	lw	s0,8(sp)
  1026ce:	40b2                	lw	ra,12(sp)
  1026d0:	4492                	lw	s1,4(sp)
  1026d2:	0141                	addi	sp,sp,16
  1026d4:	ad35                	j	102d10 <__malloc_unlock>
  1026d6:	c2d8                	sw	a4,4(a3)
  1026d8:	4801                	li	a6,0
  1026da:	e195                	bnez	a1,1026fe <_free_r+0xa4>
  1026dc:	ff84a583          	lw	a1,-8(s1)
  1026e0:	001048b7          	lui	a7,0x104
  1026e4:	c4888893          	addi	a7,a7,-952 # 103c48 <__malloc_av_+0x8>
  1026e8:	8e0d                	sub	a2,a2,a1
  1026ea:	97ae                	add	a5,a5,a1
  1026ec:	460c                	lw	a1,8(a2)
  1026ee:	07158b63          	beq	a1,a7,102764 <_free_r+0x10a>
  1026f2:	00c62883          	lw	a7,12(a2)
  1026f6:	0115a623          	sw	a7,12(a1)
  1026fa:	00b8a423          	sw	a1,8(a7)
  1026fe:	00e685b3          	add	a1,a3,a4
  102702:	41cc                	lw	a1,4(a1)
  102704:	8985                	andi	a1,a1,1
  102706:	e185                	bnez	a1,102726 <_free_r+0xcc>
  102708:	97ba                	add	a5,a5,a4
  10270a:	4698                	lw	a4,8(a3)
  10270c:	04081e63          	bnez	a6,102768 <_free_r+0x10e>
  102710:	001045b7          	lui	a1,0x104
  102714:	c4858593          	addi	a1,a1,-952 # 103c48 <__malloc_av_+0x8>
  102718:	04b71863          	bne	a4,a1,102768 <_free_r+0x10e>
  10271c:	c950                	sw	a2,20(a0)
  10271e:	c910                	sw	a2,16(a0)
  102720:	c658                	sw	a4,12(a2)
  102722:	c618                	sw	a4,8(a2)
  102724:	4805                	li	a6,1
  102726:	0017e713          	ori	a4,a5,1
  10272a:	c258                	sw	a4,4(a2)
  10272c:	00f60733          	add	a4,a2,a5
  102730:	c31c                	sw	a5,0(a4)
  102732:	f8081ce3          	bnez	a6,1026ca <_free_r+0x70>
  102736:	1ff00713          	li	a4,511
  10273a:	02f76b63          	bltu	a4,a5,102770 <_free_r+0x116>
  10273e:	0057d693          	srli	a3,a5,0x5
  102742:	4705                	li	a4,1
  102744:	00d71733          	sll	a4,a4,a3
  102748:	4154                	lw	a3,4(a0)
  10274a:	9be1                	andi	a5,a5,-8
  10274c:	07a1                	addi	a5,a5,8
  10274e:	8f55                	or	a4,a4,a3
  102750:	97aa                	add	a5,a5,a0
  102752:	c158                	sw	a4,4(a0)
  102754:	4398                	lw	a4,0(a5)
  102756:	ff878693          	addi	a3,a5,-8
  10275a:	c654                	sw	a3,12(a2)
  10275c:	c618                	sw	a4,8(a2)
  10275e:	c390                	sw	a2,0(a5)
  102760:	c750                	sw	a2,12(a4)
  102762:	b7a5                	j	1026ca <_free_r+0x70>
  102764:	4805                	li	a6,1
  102766:	bf61                	j	1026fe <_free_r+0xa4>
  102768:	46d4                	lw	a3,12(a3)
  10276a:	c754                	sw	a3,12(a4)
  10276c:	c698                	sw	a4,8(a3)
  10276e:	bf65                	j	102726 <_free_r+0xcc>
  102770:	0097d693          	srli	a3,a5,0x9
  102774:	4711                	li	a4,4
  102776:	02d76b63          	bltu	a4,a3,1027ac <_free_r+0x152>
  10277a:	0067d713          	srli	a4,a5,0x6
  10277e:	03870713          	addi	a4,a4,56
  102782:	00170693          	addi	a3,a4,1
  102786:	068e                	slli	a3,a3,0x3
  102788:	96aa                	add	a3,a3,a0
  10278a:	ff868593          	addi	a1,a3,-8
  10278e:	4294                	lw	a3,0(a3)
  102790:	06d59463          	bne	a1,a3,1027f8 <_free_r+0x19e>
  102794:	4785                	li	a5,1
  102796:	8709                	srai	a4,a4,0x2
  102798:	00e79733          	sll	a4,a5,a4
  10279c:	415c                	lw	a5,4(a0)
  10279e:	8f5d                	or	a4,a4,a5
  1027a0:	c158                	sw	a4,4(a0)
  1027a2:	c64c                	sw	a1,12(a2)
  1027a4:	c614                	sw	a3,8(a2)
  1027a6:	c590                	sw	a2,8(a1)
  1027a8:	c6d0                	sw	a2,12(a3)
  1027aa:	b705                	j	1026ca <_free_r+0x70>
  1027ac:	4751                	li	a4,20
  1027ae:	00d76563          	bltu	a4,a3,1027b8 <_free_r+0x15e>
  1027b2:	05b68713          	addi	a4,a3,91
  1027b6:	b7f1                	j	102782 <_free_r+0x128>
  1027b8:	05400713          	li	a4,84
  1027bc:	00d76763          	bltu	a4,a3,1027ca <_free_r+0x170>
  1027c0:	00c7d713          	srli	a4,a5,0xc
  1027c4:	06e70713          	addi	a4,a4,110
  1027c8:	bf6d                	j	102782 <_free_r+0x128>
  1027ca:	15400713          	li	a4,340
  1027ce:	00d76763          	bltu	a4,a3,1027dc <_free_r+0x182>
  1027d2:	00f7d713          	srli	a4,a5,0xf
  1027d6:	07770713          	addi	a4,a4,119
  1027da:	b765                	j	102782 <_free_r+0x128>
  1027dc:	55400593          	li	a1,1364
  1027e0:	07e00713          	li	a4,126
  1027e4:	f8d5efe3          	bltu	a1,a3,102782 <_free_r+0x128>
  1027e8:	0127d713          	srli	a4,a5,0x12
  1027ec:	07c70713          	addi	a4,a4,124
  1027f0:	bf49                	j	102782 <_free_r+0x128>
  1027f2:	4694                	lw	a3,8(a3)
  1027f4:	00d58663          	beq	a1,a3,102800 <_free_r+0x1a6>
  1027f8:	42d8                	lw	a4,4(a3)
  1027fa:	9b71                	andi	a4,a4,-4
  1027fc:	fee7ebe3          	bltu	a5,a4,1027f2 <_free_r+0x198>
  102800:	46cc                	lw	a1,12(a3)
  102802:	b745                	j	1027a2 <_free_r+0x148>
  102804:	8082                	ret

00102806 <_malloc_r>:
  102806:	7179                	addi	sp,sp,-48
  102808:	ce4e                	sw	s3,28(sp)
  10280a:	d606                	sw	ra,44(sp)
  10280c:	d422                	sw	s0,40(sp)
  10280e:	d226                	sw	s1,36(sp)
  102810:	d04a                	sw	s2,32(sp)
  102812:	cc52                	sw	s4,24(sp)
  102814:	ca56                	sw	s5,20(sp)
  102816:	c85a                	sw	s6,16(sp)
  102818:	c65e                	sw	s7,12(sp)
  10281a:	c462                	sw	s8,8(sp)
  10281c:	c266                	sw	s9,4(sp)
  10281e:	00b58793          	addi	a5,a1,11
  102822:	4759                	li	a4,22
  102824:	89aa                	mv	s3,a0
  102826:	02f77763          	bgeu	a4,a5,102854 <_malloc_r+0x4e>
  10282a:	ff87f493          	andi	s1,a5,-8
  10282e:	0207d463          	bgez	a5,102856 <_malloc_r+0x50>
  102832:	47b1                	li	a5,12
  102834:	00f9a023          	sw	a5,0(s3)
  102838:	4501                	li	a0,0
  10283a:	50b2                	lw	ra,44(sp)
  10283c:	5422                	lw	s0,40(sp)
  10283e:	5492                	lw	s1,36(sp)
  102840:	5902                	lw	s2,32(sp)
  102842:	49f2                	lw	s3,28(sp)
  102844:	4a62                	lw	s4,24(sp)
  102846:	4ad2                	lw	s5,20(sp)
  102848:	4b42                	lw	s6,16(sp)
  10284a:	4bb2                	lw	s7,12(sp)
  10284c:	4c22                	lw	s8,8(sp)
  10284e:	4c92                	lw	s9,4(sp)
  102850:	6145                	addi	sp,sp,48
  102852:	8082                	ret
  102854:	44c1                	li	s1,16
  102856:	fcb4eee3          	bltu	s1,a1,102832 <_malloc_r+0x2c>
  10285a:	854e                	mv	a0,s3
  10285c:	294d                	jal	102d0e <__malloc_lock>
  10285e:	00104937          	lui	s2,0x104
  102862:	1f700793          	li	a5,503
  102866:	c4090913          	addi	s2,s2,-960 # 103c40 <__malloc_av_>
  10286a:	0297ec63          	bltu	a5,s1,1028a2 <_malloc_r+0x9c>
  10286e:	00848713          	addi	a4,s1,8
  102872:	974a                	add	a4,a4,s2
  102874:	4340                	lw	s0,4(a4)
  102876:	ff870693          	addi	a3,a4,-8
  10287a:	0034d793          	srli	a5,s1,0x3
  10287e:	00d41663          	bne	s0,a3,10288a <_malloc_r+0x84>
  102882:	4740                	lw	s0,12(a4)
  102884:	0789                	addi	a5,a5,2
  102886:	04870c63          	beq	a4,s0,1028de <_malloc_r+0xd8>
  10288a:	405c                	lw	a5,4(s0)
  10288c:	4458                	lw	a4,12(s0)
  10288e:	4414                	lw	a3,8(s0)
  102890:	9bf1                	andi	a5,a5,-4
  102892:	97a2                	add	a5,a5,s0
  102894:	c6d8                	sw	a4,12(a3)
  102896:	c714                	sw	a3,8(a4)
  102898:	43d8                	lw	a4,4(a5)
  10289a:	00176713          	ori	a4,a4,1
  10289e:	c3d8                	sw	a4,4(a5)
  1028a0:	a041                	j	102920 <_malloc_r+0x11a>
  1028a2:	0094d713          	srli	a4,s1,0x9
  1028a6:	03f00793          	li	a5,63
  1028aa:	cb01                	beqz	a4,1028ba <_malloc_r+0xb4>
  1028ac:	4791                	li	a5,4
  1028ae:	06e7ee63          	bltu	a5,a4,10292a <_malloc_r+0x124>
  1028b2:	0064d793          	srli	a5,s1,0x6
  1028b6:	03878793          	addi	a5,a5,56
  1028ba:	00178713          	addi	a4,a5,1
  1028be:	070e                	slli	a4,a4,0x3
  1028c0:	974a                	add	a4,a4,s2
  1028c2:	4340                	lw	s0,4(a4)
  1028c4:	ff870593          	addi	a1,a4,-8
  1028c8:	453d                	li	a0,15
  1028ca:	00b40963          	beq	s0,a1,1028dc <_malloc_r+0xd6>
  1028ce:	4058                	lw	a4,4(s0)
  1028d0:	9b71                	andi	a4,a4,-4
  1028d2:	40970633          	sub	a2,a4,s1
  1028d6:	08c55d63          	bge	a0,a2,102970 <_malloc_r+0x16a>
  1028da:	17fd                	addi	a5,a5,-1
  1028dc:	0785                	addi	a5,a5,1
  1028de:	01092403          	lw	s0,16(s2)
  1028e2:	001045b7          	lui	a1,0x104
  1028e6:	00890693          	addi	a3,s2,8
  1028ea:	c4858593          	addi	a1,a1,-952 # 103c48 <__malloc_av_+0x8>
  1028ee:	0ed40163          	beq	s0,a3,1029d0 <_malloc_r+0x1ca>
  1028f2:	4058                	lw	a4,4(s0)
  1028f4:	463d                	li	a2,15
  1028f6:	9b71                	andi	a4,a4,-4
  1028f8:	40970533          	sub	a0,a4,s1
  1028fc:	08a65563          	bge	a2,a0,102986 <_malloc_r+0x180>
  102900:	0014e793          	ori	a5,s1,1
  102904:	c05c                	sw	a5,4(s0)
  102906:	00940633          	add	a2,s0,s1
  10290a:	00c92a23          	sw	a2,20(s2)
  10290e:	00c92823          	sw	a2,16(s2)
  102912:	00156793          	ori	a5,a0,1
  102916:	c654                	sw	a3,12(a2)
  102918:	c614                	sw	a3,8(a2)
  10291a:	c25c                	sw	a5,4(a2)
  10291c:	9722                	add	a4,a4,s0
  10291e:	c308                	sw	a0,0(a4)
  102920:	854e                	mv	a0,s3
  102922:	26fd                	jal	102d10 <__malloc_unlock>
  102924:	00840513          	addi	a0,s0,8
  102928:	bf09                	j	10283a <_malloc_r+0x34>
  10292a:	47d1                	li	a5,20
  10292c:	00e7e563          	bltu	a5,a4,102936 <_malloc_r+0x130>
  102930:	05b70793          	addi	a5,a4,91
  102934:	b759                	j	1028ba <_malloc_r+0xb4>
  102936:	05400793          	li	a5,84
  10293a:	00e7e763          	bltu	a5,a4,102948 <_malloc_r+0x142>
  10293e:	00c4d793          	srli	a5,s1,0xc
  102942:	06e78793          	addi	a5,a5,110
  102946:	bf95                	j	1028ba <_malloc_r+0xb4>
  102948:	15400793          	li	a5,340
  10294c:	00e7e763          	bltu	a5,a4,10295a <_malloc_r+0x154>
  102950:	00f4d793          	srli	a5,s1,0xf
  102954:	07778793          	addi	a5,a5,119
  102958:	b78d                	j	1028ba <_malloc_r+0xb4>
  10295a:	55400693          	li	a3,1364
  10295e:	07e00793          	li	a5,126
  102962:	f4e6ece3          	bltu	a3,a4,1028ba <_malloc_r+0xb4>
  102966:	0124d793          	srli	a5,s1,0x12
  10296a:	07c78793          	addi	a5,a5,124
  10296e:	b7b1                	j	1028ba <_malloc_r+0xb4>
  102970:	4454                	lw	a3,12(s0)
  102972:	00064863          	bltz	a2,102982 <_malloc_r+0x17c>
  102976:	441c                	lw	a5,8(s0)
  102978:	c7d4                	sw	a3,12(a5)
  10297a:	c69c                	sw	a5,8(a3)
  10297c:	00e407b3          	add	a5,s0,a4
  102980:	bf21                	j	102898 <_malloc_r+0x92>
  102982:	8436                	mv	s0,a3
  102984:	b799                	j	1028ca <_malloc_r+0xc4>
  102986:	00d92a23          	sw	a3,20(s2)
  10298a:	00d92823          	sw	a3,16(s2)
  10298e:	00054863          	bltz	a0,10299e <_malloc_r+0x198>
  102992:	9722                	add	a4,a4,s0
  102994:	435c                	lw	a5,4(a4)
  102996:	0017e793          	ori	a5,a5,1
  10299a:	c35c                	sw	a5,4(a4)
  10299c:	b751                	j	102920 <_malloc_r+0x11a>
  10299e:	1ff00693          	li	a3,511
  1029a2:	00492803          	lw	a6,4(s2)
  1029a6:	12e6e963          	bltu	a3,a4,102ad8 <_malloc_r+0x2d2>
  1029aa:	00575613          	srli	a2,a4,0x5
  1029ae:	4685                	li	a3,1
  1029b0:	9b61                	andi	a4,a4,-8
  1029b2:	00c696b3          	sll	a3,a3,a2
  1029b6:	0721                	addi	a4,a4,8
  1029b8:	974a                	add	a4,a4,s2
  1029ba:	0106e6b3          	or	a3,a3,a6
  1029be:	00d92223          	sw	a3,4(s2)
  1029c2:	4314                	lw	a3,0(a4)
  1029c4:	ff870613          	addi	a2,a4,-8
  1029c8:	c450                	sw	a2,12(s0)
  1029ca:	c414                	sw	a3,8(s0)
  1029cc:	c300                	sw	s0,0(a4)
  1029ce:	c6c0                	sw	s0,12(a3)
  1029d0:	4027d713          	srai	a4,a5,0x2
  1029d4:	4305                	li	t1,1
  1029d6:	00e31333          	sll	t1,t1,a4
  1029da:	00492703          	lw	a4,4(s2)
  1029de:	04676c63          	bltu	a4,t1,102a36 <_malloc_r+0x230>
  1029e2:	006776b3          	and	a3,a4,t1
  1029e6:	e699                	bnez	a3,1029f4 <_malloc_r+0x1ee>
  1029e8:	9bf1                	andi	a5,a5,-4
  1029ea:	0306                	slli	t1,t1,0x1
  1029ec:	006776b3          	and	a3,a4,t1
  1029f0:	0791                	addi	a5,a5,4
  1029f2:	dee5                	beqz	a3,1029ea <_malloc_r+0x1e4>
  1029f4:	4e3d                	li	t3,15
  1029f6:	00379693          	slli	a3,a5,0x3
  1029fa:	96ca                	add	a3,a3,s2
  1029fc:	8836                	mv	a6,a3
  1029fe:	853e                	mv	a0,a5
  102a00:	00c82403          	lw	s0,12(a6)
  102a04:	17041563          	bne	s0,a6,102b6e <_malloc_r+0x368>
  102a08:	0505                	addi	a0,a0,1
  102a0a:	00357713          	andi	a4,a0,3
  102a0e:	0821                	addi	a6,a6,8
  102a10:	fb65                	bnez	a4,102a00 <_malloc_r+0x1fa>
  102a12:	0037f713          	andi	a4,a5,3
  102a16:	1a071563          	bnez	a4,102bc0 <_malloc_r+0x3ba>
  102a1a:	00492703          	lw	a4,4(s2)
  102a1e:	fff34793          	not	a5,t1
  102a22:	8ff9                	and	a5,a5,a4
  102a24:	00f92223          	sw	a5,4(s2)
  102a28:	00492703          	lw	a4,4(s2)
  102a2c:	0306                	slli	t1,t1,0x1
  102a2e:	00676463          	bltu	a4,t1,102a36 <_malloc_r+0x230>
  102a32:	1a031363          	bnez	t1,102bd8 <_malloc_r+0x3d2>
  102a36:	00892b83          	lw	s7,8(s2)
  102a3a:	004ba403          	lw	s0,4(s7)
  102a3e:	ffc47b13          	andi	s6,s0,-4
  102a42:	009b6763          	bltu	s6,s1,102a50 <_malloc_r+0x24a>
  102a46:	409b0733          	sub	a4,s6,s1
  102a4a:	47bd                	li	a5,15
  102a4c:	26e7c563          	blt	a5,a4,102cb6 <_malloc_r+0x4b0>
  102a50:	001047b7          	lui	a5,0x104
  102a54:	00104737          	lui	a4,0x104
  102a58:	06c7a403          	lw	s0,108(a5) # 10406c <__malloc_top_pad>
  102a5c:	9a072683          	lw	a3,-1632(a4) # 1039a0 <__malloc_sbrk_base>
  102a60:	57fd                	li	a5,-1
  102a62:	016b8a33          	add	s4,s7,s6
  102a66:	9426                	add	s0,s0,s1
  102a68:	8cba                	mv	s9,a4
  102a6a:	16f69963          	bne	a3,a5,102bdc <_malloc_r+0x3d6>
  102a6e:	0441                	addi	s0,s0,16
  102a70:	85a2                	mv	a1,s0
  102a72:	854e                	mv	a0,s3
  102a74:	159000ef          	jal	ra,1033cc <_sbrk_r>
  102a78:	57fd                	li	a5,-1
  102a7a:	8aaa                	mv	s5,a0
  102a7c:	1ef50363          	beq	a0,a5,102c62 <_malloc_r+0x45c>
  102a80:	01457463          	bgeu	a0,s4,102a88 <_malloc_r+0x282>
  102a84:	1d2b9f63          	bne	s7,s2,102c62 <_malloc_r+0x45c>
  102a88:	00104c37          	lui	s8,0x104
  102a8c:	1acc0693          	addi	a3,s8,428 # 1041ac <__malloc_current_mallinfo>
  102a90:	4298                	lw	a4,0(a3)
  102a92:	1acc0c13          	addi	s8,s8,428
  102a96:	9722                	add	a4,a4,s0
  102a98:	c298                	sw	a4,0(a3)
  102a9a:	155a1763          	bne	s4,s5,102be8 <_malloc_r+0x3e2>
  102a9e:	014a1793          	slli	a5,s4,0x14
  102aa2:	14079363          	bnez	a5,102be8 <_malloc_r+0x3e2>
  102aa6:	00892783          	lw	a5,8(s2)
  102aaa:	945a                	add	s0,s0,s6
  102aac:	00146413          	ori	s0,s0,1
  102ab0:	c3c0                	sw	s0,4(a5)
  102ab2:	00104737          	lui	a4,0x104
  102ab6:	000c2783          	lw	a5,0(s8)
  102aba:	06872683          	lw	a3,104(a4) # 104068 <__malloc_max_sbrked_mem>
  102abe:	00f6f463          	bgeu	a3,a5,102ac6 <_malloc_r+0x2c0>
  102ac2:	06f72423          	sw	a5,104(a4)
  102ac6:	00104737          	lui	a4,0x104
  102aca:	06472683          	lw	a3,100(a4) # 104064 <__malloc_max_total_mem>
  102ace:	18f6fa63          	bgeu	a3,a5,102c62 <_malloc_r+0x45c>
  102ad2:	06f72223          	sw	a5,100(a4)
  102ad6:	a271                	j	102c62 <_malloc_r+0x45c>
  102ad8:	00975613          	srli	a2,a4,0x9
  102adc:	4691                	li	a3,4
  102ade:	02c6ec63          	bltu	a3,a2,102b16 <_malloc_r+0x310>
  102ae2:	00675693          	srli	a3,a4,0x6
  102ae6:	03868693          	addi	a3,a3,56
  102aea:	00168613          	addi	a2,a3,1
  102aee:	060e                	slli	a2,a2,0x3
  102af0:	964a                	add	a2,a2,s2
  102af2:	ff860513          	addi	a0,a2,-8
  102af6:	4210                	lw	a2,0(a2)
  102af8:	06c51563          	bne	a0,a2,102b62 <_malloc_r+0x35c>
  102afc:	8689                	srai	a3,a3,0x2
  102afe:	4705                	li	a4,1
  102b00:	00d716b3          	sll	a3,a4,a3
  102b04:	0106e6b3          	or	a3,a3,a6
  102b08:	00d92223          	sw	a3,4(s2)
  102b0c:	c448                	sw	a0,12(s0)
  102b0e:	c410                	sw	a2,8(s0)
  102b10:	c500                	sw	s0,8(a0)
  102b12:	c640                	sw	s0,12(a2)
  102b14:	bd75                	j	1029d0 <_malloc_r+0x1ca>
  102b16:	46d1                	li	a3,20
  102b18:	00c6e563          	bltu	a3,a2,102b22 <_malloc_r+0x31c>
  102b1c:	05b60693          	addi	a3,a2,91
  102b20:	b7e9                	j	102aea <_malloc_r+0x2e4>
  102b22:	05400693          	li	a3,84
  102b26:	00c6e763          	bltu	a3,a2,102b34 <_malloc_r+0x32e>
  102b2a:	00c75693          	srli	a3,a4,0xc
  102b2e:	06e68693          	addi	a3,a3,110
  102b32:	bf65                	j	102aea <_malloc_r+0x2e4>
  102b34:	15400693          	li	a3,340
  102b38:	00c6e763          	bltu	a3,a2,102b46 <_malloc_r+0x340>
  102b3c:	00f75693          	srli	a3,a4,0xf
  102b40:	07768693          	addi	a3,a3,119
  102b44:	b75d                	j	102aea <_malloc_r+0x2e4>
  102b46:	55400513          	li	a0,1364
  102b4a:	07e00693          	li	a3,126
  102b4e:	f8c56ee3          	bltu	a0,a2,102aea <_malloc_r+0x2e4>
  102b52:	01275693          	srli	a3,a4,0x12
  102b56:	07c68693          	addi	a3,a3,124
  102b5a:	bf41                	j	102aea <_malloc_r+0x2e4>
  102b5c:	4610                	lw	a2,8(a2)
  102b5e:	00c50663          	beq	a0,a2,102b6a <_malloc_r+0x364>
  102b62:	4254                	lw	a3,4(a2)
  102b64:	9af1                	andi	a3,a3,-4
  102b66:	fed76be3          	bltu	a4,a3,102b5c <_malloc_r+0x356>
  102b6a:	4648                	lw	a0,12(a2)
  102b6c:	b745                	j	102b0c <_malloc_r+0x306>
  102b6e:	4058                	lw	a4,4(s0)
  102b70:	4450                	lw	a2,12(s0)
  102b72:	9b71                	andi	a4,a4,-4
  102b74:	409708b3          	sub	a7,a4,s1
  102b78:	031e5763          	bge	t3,a7,102ba6 <_malloc_r+0x3a0>
  102b7c:	0014e793          	ori	a5,s1,1
  102b80:	c05c                	sw	a5,4(s0)
  102b82:	441c                	lw	a5,8(s0)
  102b84:	009406b3          	add	a3,s0,s1
  102b88:	9722                	add	a4,a4,s0
  102b8a:	c7d0                	sw	a2,12(a5)
  102b8c:	c61c                	sw	a5,8(a2)
  102b8e:	00d92a23          	sw	a3,20(s2)
  102b92:	00d92823          	sw	a3,16(s2)
  102b96:	0018e793          	ori	a5,a7,1
  102b9a:	c6cc                	sw	a1,12(a3)
  102b9c:	c68c                	sw	a1,8(a3)
  102b9e:	c2dc                	sw	a5,4(a3)
  102ba0:	01172023          	sw	a7,0(a4)
  102ba4:	bbb5                	j	102920 <_malloc_r+0x11a>
  102ba6:	0008cb63          	bltz	a7,102bbc <_malloc_r+0x3b6>
  102baa:	9722                	add	a4,a4,s0
  102bac:	435c                	lw	a5,4(a4)
  102bae:	0017e793          	ori	a5,a5,1
  102bb2:	c35c                	sw	a5,4(a4)
  102bb4:	441c                	lw	a5,8(s0)
  102bb6:	c7d0                	sw	a2,12(a5)
  102bb8:	c61c                	sw	a5,8(a2)
  102bba:	b39d                	j	102920 <_malloc_r+0x11a>
  102bbc:	8432                	mv	s0,a2
  102bbe:	b599                	j	102a04 <_malloc_r+0x1fe>
  102bc0:	4298                	lw	a4,0(a3)
  102bc2:	16e1                	addi	a3,a3,-8
  102bc4:	17fd                	addi	a5,a5,-1
  102bc6:	e4d706e3          	beq	a4,a3,102a12 <_malloc_r+0x20c>
  102bca:	bdb9                	j	102a28 <_malloc_r+0x222>
  102bcc:	0791                	addi	a5,a5,4
  102bce:	0306                	slli	t1,t1,0x1
  102bd0:	006776b3          	and	a3,a4,t1
  102bd4:	dee5                	beqz	a3,102bcc <_malloc_r+0x3c6>
  102bd6:	b505                	j	1029f6 <_malloc_r+0x1f0>
  102bd8:	87aa                	mv	a5,a0
  102bda:	bfdd                	j	102bd0 <_malloc_r+0x3ca>
  102bdc:	6585                	lui	a1,0x1
  102bde:	05bd                	addi	a1,a1,15
  102be0:	942e                	add	s0,s0,a1
  102be2:	75fd                	lui	a1,0xfffff
  102be4:	8c6d                	and	s0,s0,a1
  102be6:	b569                	j	102a70 <_malloc_r+0x26a>
  102be8:	9a0ca683          	lw	a3,-1632(s9)
  102bec:	57fd                	li	a5,-1
  102bee:	08f69863          	bne	a3,a5,102c7e <_malloc_r+0x478>
  102bf2:	9b5ca023          	sw	s5,-1632(s9)
  102bf6:	007afc93          	andi	s9,s5,7
  102bfa:	4581                	li	a1,0
  102bfc:	000c8663          	beqz	s9,102c08 <_malloc_r+0x402>
  102c00:	45a1                	li	a1,8
  102c02:	419585b3          	sub	a1,a1,s9
  102c06:	9aae                	add	s5,s5,a1
  102c08:	6785                	lui	a5,0x1
  102c0a:	00f58a33          	add	s4,a1,a5
  102c0e:	9456                	add	s0,s0,s5
  102c10:	17fd                	addi	a5,a5,-1
  102c12:	408a0a33          	sub	s4,s4,s0
  102c16:	00fa7a33          	and	s4,s4,a5
  102c1a:	85d2                	mv	a1,s4
  102c1c:	854e                	mv	a0,s3
  102c1e:	7ae000ef          	jal	ra,1033cc <_sbrk_r>
  102c22:	57fd                	li	a5,-1
  102c24:	00f51963          	bne	a0,a5,102c36 <_malloc_r+0x430>
  102c28:	8522                	mv	a0,s0
  102c2a:	000c8563          	beqz	s9,102c34 <_malloc_r+0x42e>
  102c2e:	ff8c8513          	addi	a0,s9,-8
  102c32:	9522                	add	a0,a0,s0
  102c34:	4a01                	li	s4,0
  102c36:	000c2783          	lw	a5,0(s8)
  102c3a:	01592423          	sw	s5,8(s2)
  102c3e:	97d2                	add	a5,a5,s4
  102c40:	00fc2023          	sw	a5,0(s8)
  102c44:	415507b3          	sub	a5,a0,s5
  102c48:	97d2                	add	a5,a5,s4
  102c4a:	0017e793          	ori	a5,a5,1
  102c4e:	00faa223          	sw	a5,4(s5)
  102c52:	e72b80e3          	beq	s7,s2,102ab2 <_malloc_r+0x2ac>
  102c56:	473d                	li	a4,15
  102c58:	03676963          	bltu	a4,s6,102c8a <_malloc_r+0x484>
  102c5c:	4785                	li	a5,1
  102c5e:	00faa223          	sw	a5,4(s5)
  102c62:	00892783          	lw	a5,8(s2)
  102c66:	43dc                	lw	a5,4(a5)
  102c68:	9bf1                	andi	a5,a5,-4
  102c6a:	40978733          	sub	a4,a5,s1
  102c6e:	0097e563          	bltu	a5,s1,102c78 <_malloc_r+0x472>
  102c72:	47bd                	li	a5,15
  102c74:	04e7c163          	blt	a5,a4,102cb6 <_malloc_r+0x4b0>
  102c78:	854e                	mv	a0,s3
  102c7a:	2859                	jal	102d10 <__malloc_unlock>
  102c7c:	be75                	j	102838 <_malloc_r+0x32>
  102c7e:	414a87b3          	sub	a5,s5,s4
  102c82:	97ba                	add	a5,a5,a4
  102c84:	00fc2023          	sw	a5,0(s8)
  102c88:	b7bd                	j	102bf6 <_malloc_r+0x3f0>
  102c8a:	004ba783          	lw	a5,4(s7)
  102c8e:	ff4b0413          	addi	s0,s6,-12 # 7ffffff4 <_stack_start+0x7feefff4>
  102c92:	9861                	andi	s0,s0,-8
  102c94:	8b85                	andi	a5,a5,1
  102c96:	8fc1                	or	a5,a5,s0
  102c98:	00fba223          	sw	a5,4(s7)
  102c9c:	4695                	li	a3,5
  102c9e:	008b87b3          	add	a5,s7,s0
  102ca2:	c3d4                	sw	a3,4(a5)
  102ca4:	c794                	sw	a3,8(a5)
  102ca6:	e08776e3          	bgeu	a4,s0,102ab2 <_malloc_r+0x2ac>
  102caa:	008b8593          	addi	a1,s7,8
  102cae:	854e                	mv	a0,s3
  102cb0:	9abff0ef          	jal	ra,10265a <_free_r>
  102cb4:	bbfd                	j	102ab2 <_malloc_r+0x2ac>
  102cb6:	00892403          	lw	s0,8(s2)
  102cba:	0014e793          	ori	a5,s1,1
  102cbe:	c05c                	sw	a5,4(s0)
  102cc0:	009407b3          	add	a5,s0,s1
  102cc4:	00f92423          	sw	a5,8(s2)
  102cc8:	bec9                	j	10289a <_malloc_r+0x94>

00102cca <_mbtowc_r>:
  102cca:	001047b7          	lui	a5,0x104
  102cce:	bb87a783          	lw	a5,-1096(a5) # 103bb8 <__global_locale+0xe4>
  102cd2:	8782                	jr	a5

00102cd4 <__ascii_mbtowc>:
  102cd4:	e185                	bnez	a1,102cf4 <__ascii_mbtowc+0x20>
  102cd6:	1141                	addi	sp,sp,-16
  102cd8:	006c                	addi	a1,sp,12
  102cda:	4501                	li	a0,0
  102cdc:	ca11                	beqz	a2,102cf0 <__ascii_mbtowc+0x1c>
  102cde:	5579                	li	a0,-2
  102ce0:	ca81                	beqz	a3,102cf0 <__ascii_mbtowc+0x1c>
  102ce2:	00064783          	lbu	a5,0(a2)
  102ce6:	c19c                	sw	a5,0(a1)
  102ce8:	00064503          	lbu	a0,0(a2)
  102cec:	00a03533          	snez	a0,a0
  102cf0:	0141                	addi	sp,sp,16
  102cf2:	8082                	ret
  102cf4:	4501                	li	a0,0
  102cf6:	ca19                	beqz	a2,102d0c <__ascii_mbtowc+0x38>
  102cf8:	5579                	li	a0,-2
  102cfa:	ca89                	beqz	a3,102d0c <__ascii_mbtowc+0x38>
  102cfc:	00064783          	lbu	a5,0(a2)
  102d00:	c19c                	sw	a5,0(a1)
  102d02:	00064503          	lbu	a0,0(a2)
  102d06:	00a03533          	snez	a0,a0
  102d0a:	8082                	ret
  102d0c:	8082                	ret

00102d0e <__malloc_lock>:
  102d0e:	8082                	ret

00102d10 <__malloc_unlock>:
  102d10:	8082                	ret

00102d12 <_realloc_r>:
  102d12:	7139                	addi	sp,sp,-64
  102d14:	dc22                	sw	s0,56(sp)
  102d16:	de06                	sw	ra,60(sp)
  102d18:	842e                	mv	s0,a1
  102d1a:	da26                	sw	s1,52(sp)
  102d1c:	d84a                	sw	s2,48(sp)
  102d1e:	d64e                	sw	s3,44(sp)
  102d20:	d452                	sw	s4,40(sp)
  102d22:	d256                	sw	s5,36(sp)
  102d24:	d05a                	sw	s6,32(sp)
  102d26:	ce5e                	sw	s7,28(sp)
  102d28:	cc62                	sw	s8,24(sp)
  102d2a:	85b2                	mv	a1,a2
  102d2c:	ec11                	bnez	s0,102d48 <_realloc_r+0x36>
  102d2e:	5462                	lw	s0,56(sp)
  102d30:	50f2                	lw	ra,60(sp)
  102d32:	54d2                	lw	s1,52(sp)
  102d34:	5942                	lw	s2,48(sp)
  102d36:	59b2                	lw	s3,44(sp)
  102d38:	5a22                	lw	s4,40(sp)
  102d3a:	5a92                	lw	s5,36(sp)
  102d3c:	5b02                	lw	s6,32(sp)
  102d3e:	4bf2                	lw	s7,28(sp)
  102d40:	4c62                	lw	s8,24(sp)
  102d42:	6121                	addi	sp,sp,64
  102d44:	ac3ff06f          	j	102806 <_malloc_r>
  102d48:	8aaa                	mv	s5,a0
  102d4a:	c632                	sw	a2,12(sp)
  102d4c:	37c9                	jal	102d0e <__malloc_lock>
  102d4e:	45b2                	lw	a1,12(sp)
  102d50:	4759                	li	a4,22
  102d52:	00b58793          	addi	a5,a1,11 # fffff00b <_stack_start+0xffeef00b>
  102d56:	02f77763          	bgeu	a4,a5,102d84 <_realloc_r+0x72>
  102d5a:	ff87fb13          	andi	s6,a5,-8
  102d5e:	0207d463          	bgez	a5,102d86 <_realloc_r+0x74>
  102d62:	47b1                	li	a5,12
  102d64:	00faa023          	sw	a5,0(s5)
  102d68:	4a01                	li	s4,0
  102d6a:	50f2                	lw	ra,60(sp)
  102d6c:	5462                	lw	s0,56(sp)
  102d6e:	54d2                	lw	s1,52(sp)
  102d70:	5942                	lw	s2,48(sp)
  102d72:	59b2                	lw	s3,44(sp)
  102d74:	5a92                	lw	s5,36(sp)
  102d76:	5b02                	lw	s6,32(sp)
  102d78:	4bf2                	lw	s7,28(sp)
  102d7a:	4c62                	lw	s8,24(sp)
  102d7c:	8552                	mv	a0,s4
  102d7e:	5a22                	lw	s4,40(sp)
  102d80:	6121                	addi	sp,sp,64
  102d82:	8082                	ret
  102d84:	4b41                	li	s6,16
  102d86:	fcbb6ee3          	bltu	s6,a1,102d62 <_realloc_r+0x50>
  102d8a:	ffc42783          	lw	a5,-4(s0)
  102d8e:	ff840b93          	addi	s7,s0,-8
  102d92:	ffc7f913          	andi	s2,a5,-4
  102d96:	2f695a63          	bge	s2,s6,10308a <_realloc_r+0x378>
  102d9a:	00104c37          	lui	s8,0x104
  102d9e:	c40c0693          	addi	a3,s8,-960 # 103c40 <__malloc_av_>
  102da2:	4690                	lw	a2,8(a3)
  102da4:	012b8733          	add	a4,s7,s2
  102da8:	4354                	lw	a3,4(a4)
  102daa:	c40c0c13          	addi	s8,s8,-960
  102dae:	00e60863          	beq	a2,a4,102dbe <_realloc_r+0xac>
  102db2:	ffe6f513          	andi	a0,a3,-2
  102db6:	953a                	add	a0,a0,a4
  102db8:	4148                	lw	a0,4(a0)
  102dba:	8905                	andi	a0,a0,1
  102dbc:	e531                	bnez	a0,102e08 <_realloc_r+0xf6>
  102dbe:	9af1                	andi	a3,a3,-4
  102dc0:	00d909b3          	add	s3,s2,a3
  102dc4:	02e61a63          	bne	a2,a4,102df8 <_realloc_r+0xe6>
  102dc8:	010b0513          	addi	a0,s6,16
  102dcc:	04a9c063          	blt	s3,a0,102e0c <_realloc_r+0xfa>
  102dd0:	9bda                	add	s7,s7,s6
  102dd2:	416989b3          	sub	s3,s3,s6
  102dd6:	017c2423          	sw	s7,8(s8)
  102dda:	0019e993          	ori	s3,s3,1
  102dde:	013ba223          	sw	s3,4(s7)
  102de2:	ffc42783          	lw	a5,-4(s0)
  102de6:	8556                	mv	a0,s5
  102de8:	8a22                	mv	s4,s0
  102dea:	8b85                	andi	a5,a5,1
  102dec:	0167e7b3          	or	a5,a5,s6
  102df0:	fef42e23          	sw	a5,-4(s0)
  102df4:	3f31                	jal	102d10 <__malloc_unlock>
  102df6:	bf95                	j	102d6a <_realloc_r+0x58>
  102df8:	0169ca63          	blt	s3,s6,102e0c <_realloc_r+0xfa>
  102dfc:	475c                	lw	a5,12(a4)
  102dfe:	4718                	lw	a4,8(a4)
  102e00:	c75c                	sw	a5,12(a4)
  102e02:	c798                	sw	a4,8(a5)
  102e04:	84de                	mv	s1,s7
  102e06:	a239                	j	102f14 <_realloc_r+0x202>
  102e08:	4681                	li	a3,0
  102e0a:	4701                	li	a4,0
  102e0c:	8b85                	andi	a5,a5,1
  102e0e:	1e079063          	bnez	a5,102fee <_realloc_r+0x2dc>
  102e12:	ff842483          	lw	s1,-8(s0)
  102e16:	409b84b3          	sub	s1,s7,s1
  102e1a:	0044aa03          	lw	s4,4(s1)
  102e1e:	ffca7a13          	andi	s4,s4,-4
  102e22:	9a4a                	add	s4,s4,s2
  102e24:	14070c63          	beqz	a4,102f7c <_realloc_r+0x26a>
  102e28:	014689b3          	add	s3,a3,s4
  102e2c:	08e61f63          	bne	a2,a4,102eca <_realloc_r+0x1b8>
  102e30:	010b0793          	addi	a5,s6,16
  102e34:	14f9c463          	blt	s3,a5,102f7c <_realloc_r+0x26a>
  102e38:	44dc                	lw	a5,12(s1)
  102e3a:	4498                	lw	a4,8(s1)
  102e3c:	ffc90613          	addi	a2,s2,-4
  102e40:	00848a13          	addi	s4,s1,8
  102e44:	c75c                	sw	a5,12(a4)
  102e46:	c798                	sw	a4,8(a5)
  102e48:	02400793          	li	a5,36
  102e4c:	06c7ea63          	bltu	a5,a2,102ec0 <_realloc_r+0x1ae>
  102e50:	46cd                	li	a3,19
  102e52:	8752                	mv	a4,s4
  102e54:	00c6fc63          	bgeu	a3,a2,102e6c <_realloc_r+0x15a>
  102e58:	4018                	lw	a4,0(s0)
  102e5a:	c498                	sw	a4,8(s1)
  102e5c:	4058                	lw	a4,4(s0)
  102e5e:	c4d8                	sw	a4,12(s1)
  102e60:	476d                	li	a4,27
  102e62:	02c76d63          	bltu	a4,a2,102e9c <_realloc_r+0x18a>
  102e66:	0421                	addi	s0,s0,8
  102e68:	01048713          	addi	a4,s1,16
  102e6c:	401c                	lw	a5,0(s0)
  102e6e:	c31c                	sw	a5,0(a4)
  102e70:	405c                	lw	a5,4(s0)
  102e72:	c35c                	sw	a5,4(a4)
  102e74:	441c                	lw	a5,8(s0)
  102e76:	c71c                	sw	a5,8(a4)
  102e78:	016487b3          	add	a5,s1,s6
  102e7c:	416989b3          	sub	s3,s3,s6
  102e80:	00fc2423          	sw	a5,8(s8)
  102e84:	0019e993          	ori	s3,s3,1
  102e88:	0137a223          	sw	s3,4(a5)
  102e8c:	40dc                	lw	a5,4(s1)
  102e8e:	8b85                	andi	a5,a5,1
  102e90:	0167e7b3          	or	a5,a5,s6
  102e94:	c0dc                	sw	a5,4(s1)
  102e96:	8556                	mv	a0,s5
  102e98:	3da5                	jal	102d10 <__malloc_unlock>
  102e9a:	bdc1                	j	102d6a <_realloc_r+0x58>
  102e9c:	4418                	lw	a4,8(s0)
  102e9e:	c898                	sw	a4,16(s1)
  102ea0:	4458                	lw	a4,12(s0)
  102ea2:	c8d8                	sw	a4,20(s1)
  102ea4:	00f60663          	beq	a2,a5,102eb0 <_realloc_r+0x19e>
  102ea8:	0441                	addi	s0,s0,16
  102eaa:	01848713          	addi	a4,s1,24
  102eae:	bf7d                	j	102e6c <_realloc_r+0x15a>
  102eb0:	481c                	lw	a5,16(s0)
  102eb2:	02048713          	addi	a4,s1,32
  102eb6:	cc9c                	sw	a5,24(s1)
  102eb8:	485c                	lw	a5,20(s0)
  102eba:	0461                	addi	s0,s0,24
  102ebc:	ccdc                	sw	a5,28(s1)
  102ebe:	b77d                	j	102e6c <_realloc_r+0x15a>
  102ec0:	85a2                	mv	a1,s0
  102ec2:	8552                	mv	a0,s4
  102ec4:	e5aff0ef          	jal	ra,10251e <memmove>
  102ec8:	bf45                	j	102e78 <_realloc_r+0x166>
  102eca:	0b69c963          	blt	s3,s6,102f7c <_realloc_r+0x26a>
  102ece:	475c                	lw	a5,12(a4)
  102ed0:	4718                	lw	a4,8(a4)
  102ed2:	ffc90613          	addi	a2,s2,-4
  102ed6:	00848513          	addi	a0,s1,8
  102eda:	c75c                	sw	a5,12(a4)
  102edc:	c798                	sw	a4,8(a5)
  102ede:	4498                	lw	a4,8(s1)
  102ee0:	44dc                	lw	a5,12(s1)
  102ee2:	c75c                	sw	a5,12(a4)
  102ee4:	c798                	sw	a4,8(a5)
  102ee6:	02400793          	li	a5,36
  102eea:	08c7e563          	bltu	a5,a2,102f74 <_realloc_r+0x262>
  102eee:	474d                	li	a4,19
  102ef0:	00c77c63          	bgeu	a4,a2,102f08 <_realloc_r+0x1f6>
  102ef4:	4018                	lw	a4,0(s0)
  102ef6:	c498                	sw	a4,8(s1)
  102ef8:	4058                	lw	a4,4(s0)
  102efa:	c4d8                	sw	a4,12(s1)
  102efc:	476d                	li	a4,27
  102efe:	04c76963          	bltu	a4,a2,102f50 <_realloc_r+0x23e>
  102f02:	0421                	addi	s0,s0,8
  102f04:	01048513          	addi	a0,s1,16
  102f08:	401c                	lw	a5,0(s0)
  102f0a:	c11c                	sw	a5,0(a0)
  102f0c:	405c                	lw	a5,4(s0)
  102f0e:	c15c                	sw	a5,4(a0)
  102f10:	441c                	lw	a5,8(s0)
  102f12:	c51c                	sw	a5,8(a0)
  102f14:	40dc                	lw	a5,4(s1)
  102f16:	416986b3          	sub	a3,s3,s6
  102f1a:	463d                	li	a2,15
  102f1c:	8b85                	andi	a5,a5,1
  102f1e:	01348733          	add	a4,s1,s3
  102f22:	16d67663          	bgeu	a2,a3,10308e <_realloc_r+0x37c>
  102f26:	00fb67b3          	or	a5,s6,a5
  102f2a:	c0dc                	sw	a5,4(s1)
  102f2c:	016485b3          	add	a1,s1,s6
  102f30:	0016e693          	ori	a3,a3,1
  102f34:	c1d4                	sw	a3,4(a1)
  102f36:	435c                	lw	a5,4(a4)
  102f38:	05a1                	addi	a1,a1,8
  102f3a:	8556                	mv	a0,s5
  102f3c:	0017e793          	ori	a5,a5,1
  102f40:	c35c                	sw	a5,4(a4)
  102f42:	f18ff0ef          	jal	ra,10265a <_free_r>
  102f46:	8556                	mv	a0,s5
  102f48:	33e1                	jal	102d10 <__malloc_unlock>
  102f4a:	00848a13          	addi	s4,s1,8
  102f4e:	bd31                	j	102d6a <_realloc_r+0x58>
  102f50:	4418                	lw	a4,8(s0)
  102f52:	c898                	sw	a4,16(s1)
  102f54:	4458                	lw	a4,12(s0)
  102f56:	c8d8                	sw	a4,20(s1)
  102f58:	00f60663          	beq	a2,a5,102f64 <_realloc_r+0x252>
  102f5c:	0441                	addi	s0,s0,16
  102f5e:	01848513          	addi	a0,s1,24
  102f62:	b75d                	j	102f08 <_realloc_r+0x1f6>
  102f64:	481c                	lw	a5,16(s0)
  102f66:	02048513          	addi	a0,s1,32
  102f6a:	cc9c                	sw	a5,24(s1)
  102f6c:	485c                	lw	a5,20(s0)
  102f6e:	0461                	addi	s0,s0,24
  102f70:	ccdc                	sw	a5,28(s1)
  102f72:	bf59                	j	102f08 <_realloc_r+0x1f6>
  102f74:	85a2                	mv	a1,s0
  102f76:	da8ff0ef          	jal	ra,10251e <memmove>
  102f7a:	bf69                	j	102f14 <_realloc_r+0x202>
  102f7c:	076a4963          	blt	s4,s6,102fee <_realloc_r+0x2dc>
  102f80:	44dc                	lw	a5,12(s1)
  102f82:	4498                	lw	a4,8(s1)
  102f84:	ffc90613          	addi	a2,s2,-4
  102f88:	00848513          	addi	a0,s1,8
  102f8c:	c75c                	sw	a5,12(a4)
  102f8e:	c798                	sw	a4,8(a5)
  102f90:	02400793          	li	a5,36
  102f94:	04c7e963          	bltu	a5,a2,102fe6 <_realloc_r+0x2d4>
  102f98:	474d                	li	a4,19
  102f9a:	00c77c63          	bgeu	a4,a2,102fb2 <_realloc_r+0x2a0>
  102f9e:	4018                	lw	a4,0(s0)
  102fa0:	c498                	sw	a4,8(s1)
  102fa2:	4058                	lw	a4,4(s0)
  102fa4:	c4d8                	sw	a4,12(s1)
  102fa6:	476d                	li	a4,27
  102fa8:	00c76d63          	bltu	a4,a2,102fc2 <_realloc_r+0x2b0>
  102fac:	0421                	addi	s0,s0,8
  102fae:	01048513          	addi	a0,s1,16
  102fb2:	401c                	lw	a5,0(s0)
  102fb4:	c11c                	sw	a5,0(a0)
  102fb6:	405c                	lw	a5,4(s0)
  102fb8:	c15c                	sw	a5,4(a0)
  102fba:	441c                	lw	a5,8(s0)
  102fbc:	c51c                	sw	a5,8(a0)
  102fbe:	89d2                	mv	s3,s4
  102fc0:	bf91                	j	102f14 <_realloc_r+0x202>
  102fc2:	4418                	lw	a4,8(s0)
  102fc4:	c898                	sw	a4,16(s1)
  102fc6:	4458                	lw	a4,12(s0)
  102fc8:	c8d8                	sw	a4,20(s1)
  102fca:	00f60663          	beq	a2,a5,102fd6 <_realloc_r+0x2c4>
  102fce:	0441                	addi	s0,s0,16
  102fd0:	01848513          	addi	a0,s1,24
  102fd4:	bff9                	j	102fb2 <_realloc_r+0x2a0>
  102fd6:	481c                	lw	a5,16(s0)
  102fd8:	02048513          	addi	a0,s1,32
  102fdc:	cc9c                	sw	a5,24(s1)
  102fde:	485c                	lw	a5,20(s0)
  102fe0:	0461                	addi	s0,s0,24
  102fe2:	ccdc                	sw	a5,28(s1)
  102fe4:	b7f9                	j	102fb2 <_realloc_r+0x2a0>
  102fe6:	85a2                	mv	a1,s0
  102fe8:	d36ff0ef          	jal	ra,10251e <memmove>
  102fec:	bfc9                	j	102fbe <_realloc_r+0x2ac>
  102fee:	8556                	mv	a0,s5
  102ff0:	817ff0ef          	jal	ra,102806 <_malloc_r>
  102ff4:	8a2a                	mv	s4,a0
  102ff6:	ea0500e3          	beqz	a0,102e96 <_realloc_r+0x184>
  102ffa:	ffc42703          	lw	a4,-4(s0)
  102ffe:	ff850793          	addi	a5,a0,-8
  103002:	9b79                	andi	a4,a4,-2
  103004:	975e                	add	a4,a4,s7
  103006:	00f71863          	bne	a4,a5,103016 <_realloc_r+0x304>
  10300a:	ffc52983          	lw	s3,-4(a0)
  10300e:	ffc9f993          	andi	s3,s3,-4
  103012:	99ca                	add	s3,s3,s2
  103014:	bbc5                	j	102e04 <_realloc_r+0xf2>
  103016:	ffc90613          	addi	a2,s2,-4
  10301a:	02400793          	li	a5,36
  10301e:	06c7e263          	bltu	a5,a2,103082 <_realloc_r+0x370>
  103022:	474d                	li	a4,19
  103024:	04c77c63          	bgeu	a4,a2,10307c <_realloc_r+0x36a>
  103028:	4018                	lw	a4,0(s0)
  10302a:	c118                	sw	a4,0(a0)
  10302c:	4058                	lw	a4,4(s0)
  10302e:	c158                	sw	a4,4(a0)
  103030:	476d                	li	a4,27
  103032:	02c76163          	bltu	a4,a2,103054 <_realloc_r+0x342>
  103036:	00840713          	addi	a4,s0,8
  10303a:	00850793          	addi	a5,a0,8
  10303e:	4314                	lw	a3,0(a4)
  103040:	c394                	sw	a3,0(a5)
  103042:	4354                	lw	a3,4(a4)
  103044:	c3d4                	sw	a3,4(a5)
  103046:	4718                	lw	a4,8(a4)
  103048:	c798                	sw	a4,8(a5)
  10304a:	85a2                	mv	a1,s0
  10304c:	8556                	mv	a0,s5
  10304e:	e0cff0ef          	jal	ra,10265a <_free_r>
  103052:	b591                	j	102e96 <_realloc_r+0x184>
  103054:	4418                	lw	a4,8(s0)
  103056:	c518                	sw	a4,8(a0)
  103058:	4458                	lw	a4,12(s0)
  10305a:	c558                	sw	a4,12(a0)
  10305c:	00f60763          	beq	a2,a5,10306a <_realloc_r+0x358>
  103060:	01040713          	addi	a4,s0,16
  103064:	01050793          	addi	a5,a0,16
  103068:	bfd9                	j	10303e <_realloc_r+0x32c>
  10306a:	481c                	lw	a5,16(s0)
  10306c:	01840713          	addi	a4,s0,24
  103070:	c91c                	sw	a5,16(a0)
  103072:	4854                	lw	a3,20(s0)
  103074:	01850793          	addi	a5,a0,24
  103078:	c954                	sw	a3,20(a0)
  10307a:	b7d1                	j	10303e <_realloc_r+0x32c>
  10307c:	87aa                	mv	a5,a0
  10307e:	8722                	mv	a4,s0
  103080:	bf7d                	j	10303e <_realloc_r+0x32c>
  103082:	85a2                	mv	a1,s0
  103084:	c9aff0ef          	jal	ra,10251e <memmove>
  103088:	b7c9                	j	10304a <_realloc_r+0x338>
  10308a:	89ca                	mv	s3,s2
  10308c:	bba5                	j	102e04 <_realloc_r+0xf2>
  10308e:	00f9e9b3          	or	s3,s3,a5
  103092:	0134a223          	sw	s3,4(s1)
  103096:	435c                	lw	a5,4(a4)
  103098:	0017e793          	ori	a5,a5,1
  10309c:	c35c                	sw	a5,4(a4)
  10309e:	b565                	j	102f46 <_realloc_r+0x234>

001030a0 <_wctomb_r>:
  1030a0:	001047b7          	lui	a5,0x104
  1030a4:	bb47a783          	lw	a5,-1100(a5) # 103bb4 <__global_locale+0xe0>
  1030a8:	8782                	jr	a5

001030aa <__ascii_wctomb>:
  1030aa:	cd91                	beqz	a1,1030c6 <__ascii_wctomb+0x1c>
  1030ac:	0ff00793          	li	a5,255
  1030b0:	00c7f763          	bgeu	a5,a2,1030be <__ascii_wctomb+0x14>
  1030b4:	08a00793          	li	a5,138
  1030b8:	c11c                	sw	a5,0(a0)
  1030ba:	557d                	li	a0,-1
  1030bc:	8082                	ret
  1030be:	00c58023          	sb	a2,0(a1)
  1030c2:	4505                	li	a0,1
  1030c4:	8082                	ret
  1030c6:	4501                	li	a0,0
  1030c8:	8082                	ret

001030ca <_wcrtomb_r>:
  1030ca:	1101                	addi	sp,sp,-32
  1030cc:	cc22                	sw	s0,24(sp)
  1030ce:	ca26                	sw	s1,20(sp)
  1030d0:	001047b7          	lui	a5,0x104
  1030d4:	ce06                	sw	ra,28(sp)
  1030d6:	bb47a783          	lw	a5,-1100(a5) # 103bb4 <__global_locale+0xe0>
  1030da:	842a                	mv	s0,a0
  1030dc:	84b6                	mv	s1,a3
  1030de:	e199                	bnez	a1,1030e4 <_wcrtomb_r+0x1a>
  1030e0:	4601                	li	a2,0
  1030e2:	004c                	addi	a1,sp,4
  1030e4:	9782                	jalr	a5
  1030e6:	57fd                	li	a5,-1
  1030e8:	00f51763          	bne	a0,a5,1030f6 <_wcrtomb_r+0x2c>
  1030ec:	0004a023          	sw	zero,0(s1)
  1030f0:	08a00793          	li	a5,138
  1030f4:	c01c                	sw	a5,0(s0)
  1030f6:	40f2                	lw	ra,28(sp)
  1030f8:	4462                	lw	s0,24(sp)
  1030fa:	44d2                	lw	s1,20(sp)
  1030fc:	6105                	addi	sp,sp,32
  1030fe:	8082                	ret

00103100 <wcrtomb>:
  103100:	001047b7          	lui	a5,0x104
  103104:	86b2                	mv	a3,a2
  103106:	862e                	mv	a2,a1
  103108:	85aa                	mv	a1,a0
  10310a:	99c7a503          	lw	a0,-1636(a5) # 10399c <_impure_ptr>
  10310e:	bf75                	j	1030ca <_wcrtomb_r>

00103110 <_fclose_r>:
  103110:	1141                	addi	sp,sp,-16
  103112:	c606                	sw	ra,12(sp)
  103114:	c422                	sw	s0,8(sp)
  103116:	c226                	sw	s1,4(sp)
  103118:	c04a                	sw	s2,0(sp)
  10311a:	e989                	bnez	a1,10312c <_fclose_r+0x1c>
  10311c:	4901                	li	s2,0
  10311e:	40b2                	lw	ra,12(sp)
  103120:	4422                	lw	s0,8(sp)
  103122:	4492                	lw	s1,4(sp)
  103124:	854a                	mv	a0,s2
  103126:	4902                	lw	s2,0(sp)
  103128:	0141                	addi	sp,sp,16
  10312a:	8082                	ret
  10312c:	84aa                	mv	s1,a0
  10312e:	842e                	mv	s0,a1
  103130:	c509                	beqz	a0,10313a <_fclose_r+0x2a>
  103132:	595c                	lw	a5,52(a0)
  103134:	e399                	bnez	a5,10313a <_fclose_r+0x2a>
  103136:	c1dfe0ef          	jal	ra,101d52 <__sinit>
  10313a:	00c41783          	lh	a5,12(s0)
  10313e:	dff9                	beqz	a5,10311c <_fclose_r+0xc>
  103140:	85a2                	mv	a1,s0
  103142:	8526                	mv	a0,s1
  103144:	871fe0ef          	jal	ra,1019b4 <__sflush_r>
  103148:	545c                	lw	a5,44(s0)
  10314a:	892a                	mv	s2,a0
  10314c:	c799                	beqz	a5,10315a <_fclose_r+0x4a>
  10314e:	4c4c                	lw	a1,28(s0)
  103150:	8526                	mv	a0,s1
  103152:	9782                	jalr	a5
  103154:	00055363          	bgez	a0,10315a <_fclose_r+0x4a>
  103158:	597d                	li	s2,-1
  10315a:	00c45783          	lhu	a5,12(s0)
  10315e:	0807f793          	andi	a5,a5,128
  103162:	c789                	beqz	a5,10316c <_fclose_r+0x5c>
  103164:	480c                	lw	a1,16(s0)
  103166:	8526                	mv	a0,s1
  103168:	cf2ff0ef          	jal	ra,10265a <_free_r>
  10316c:	580c                	lw	a1,48(s0)
  10316e:	c991                	beqz	a1,103182 <_fclose_r+0x72>
  103170:	04040793          	addi	a5,s0,64
  103174:	00f58563          	beq	a1,a5,10317e <_fclose_r+0x6e>
  103178:	8526                	mv	a0,s1
  10317a:	ce0ff0ef          	jal	ra,10265a <_free_r>
  10317e:	02042823          	sw	zero,48(s0)
  103182:	406c                	lw	a1,68(s0)
  103184:	c591                	beqz	a1,103190 <_fclose_r+0x80>
  103186:	8526                	mv	a0,s1
  103188:	cd2ff0ef          	jal	ra,10265a <_free_r>
  10318c:	04042223          	sw	zero,68(s0)
  103190:	bdffe0ef          	jal	ra,101d6e <__sfp_lock_acquire>
  103194:	00041623          	sh	zero,12(s0)
  103198:	bd9fe0ef          	jal	ra,101d70 <__sfp_lock_release>
  10319c:	b749                	j	10311e <_fclose_r+0xe>

0010319e <fclose>:
  10319e:	001047b7          	lui	a5,0x104
  1031a2:	85aa                	mv	a1,a0
  1031a4:	99c7a503          	lw	a0,-1636(a5) # 10399c <_impure_ptr>
  1031a8:	b7a5                	j	103110 <_fclose_r>

001031aa <__swhatbuf_r>:
  1031aa:	7159                	addi	sp,sp,-112
  1031ac:	d0ca                	sw	s2,96(sp)
  1031ae:	892e                	mv	s2,a1
  1031b0:	00e59583          	lh	a1,14(a1)
  1031b4:	d4a2                	sw	s0,104(sp)
  1031b6:	d2a6                	sw	s1,100(sp)
  1031b8:	d686                	sw	ra,108(sp)
  1031ba:	8432                	mv	s0,a2
  1031bc:	84b6                	mv	s1,a3
  1031be:	0005dc63          	bgez	a1,1031d6 <__swhatbuf_r+0x2c>
  1031c2:	00c91783          	lh	a5,12(s2)
  1031c6:	0004a023          	sw	zero,0(s1)
  1031ca:	0807f793          	andi	a5,a5,128
  1031ce:	e79d                	bnez	a5,1031fc <__swhatbuf_r+0x52>
  1031d0:	40000793          	li	a5,1024
  1031d4:	a035                	j	103200 <__swhatbuf_r+0x56>
  1031d6:	0030                	addi	a2,sp,8
  1031d8:	2a59                	jal	10336e <_fstat_r>
  1031da:	fe0544e3          	bltz	a0,1031c2 <__swhatbuf_r+0x18>
  1031de:	4732                	lw	a4,12(sp)
  1031e0:	67bd                	lui	a5,0xf
  1031e2:	6505                	lui	a0,0x1
  1031e4:	8ff9                	and	a5,a5,a4
  1031e6:	7779                	lui	a4,0xffffe
  1031e8:	97ba                	add	a5,a5,a4
  1031ea:	0017b793          	seqz	a5,a5
  1031ee:	c09c                	sw	a5,0(s1)
  1031f0:	40000793          	li	a5,1024
  1031f4:	c01c                	sw	a5,0(s0)
  1031f6:	80050513          	addi	a0,a0,-2048 # 800 <_min_stack-0x800>
  1031fa:	a029                	j	103204 <__swhatbuf_r+0x5a>
  1031fc:	04000793          	li	a5,64
  103200:	c01c                	sw	a5,0(s0)
  103202:	4501                	li	a0,0
  103204:	50b6                	lw	ra,108(sp)
  103206:	5426                	lw	s0,104(sp)
  103208:	5496                	lw	s1,100(sp)
  10320a:	5906                	lw	s2,96(sp)
  10320c:	6165                	addi	sp,sp,112
  10320e:	8082                	ret

00103210 <__smakebuf_r>:
  103210:	00c5d783          	lhu	a5,12(a1)
  103214:	1101                	addi	sp,sp,-32
  103216:	cc22                	sw	s0,24(sp)
  103218:	ce06                	sw	ra,28(sp)
  10321a:	ca26                	sw	s1,20(sp)
  10321c:	c84a                	sw	s2,16(sp)
  10321e:	8b89                	andi	a5,a5,2
  103220:	842e                	mv	s0,a1
  103222:	cf89                	beqz	a5,10323c <__smakebuf_r+0x2c>
  103224:	04340793          	addi	a5,s0,67
  103228:	c01c                	sw	a5,0(s0)
  10322a:	c81c                	sw	a5,16(s0)
  10322c:	4785                	li	a5,1
  10322e:	c85c                	sw	a5,20(s0)
  103230:	40f2                	lw	ra,28(sp)
  103232:	4462                	lw	s0,24(sp)
  103234:	44d2                	lw	s1,20(sp)
  103236:	4942                	lw	s2,16(sp)
  103238:	6105                	addi	sp,sp,32
  10323a:	8082                	ret
  10323c:	0074                	addi	a3,sp,12
  10323e:	0030                	addi	a2,sp,8
  103240:	892a                	mv	s2,a0
  103242:	37a5                	jal	1031aa <__swhatbuf_r>
  103244:	45a2                	lw	a1,8(sp)
  103246:	84aa                	mv	s1,a0
  103248:	854a                	mv	a0,s2
  10324a:	dbcff0ef          	jal	ra,102806 <_malloc_r>
  10324e:	ed01                	bnez	a0,103266 <__smakebuf_r+0x56>
  103250:	00c41783          	lh	a5,12(s0)
  103254:	2007f713          	andi	a4,a5,512
  103258:	ff61                	bnez	a4,103230 <__smakebuf_r+0x20>
  10325a:	9bf1                	andi	a5,a5,-4
  10325c:	0027e793          	ori	a5,a5,2
  103260:	00f41623          	sh	a5,12(s0)
  103264:	b7c1                	j	103224 <__smakebuf_r+0x14>
  103266:	00c45783          	lhu	a5,12(s0)
  10326a:	c008                	sw	a0,0(s0)
  10326c:	c808                	sw	a0,16(s0)
  10326e:	0807e793          	ori	a5,a5,128
  103272:	00f41623          	sh	a5,12(s0)
  103276:	47a2                	lw	a5,8(sp)
  103278:	c85c                	sw	a5,20(s0)
  10327a:	47b2                	lw	a5,12(sp)
  10327c:	cf89                	beqz	a5,103296 <__smakebuf_r+0x86>
  10327e:	00e41583          	lh	a1,14(s0)
  103282:	854a                	mv	a0,s2
  103284:	2a29                	jal	10339e <_isatty_r>
  103286:	c901                	beqz	a0,103296 <__smakebuf_r+0x86>
  103288:	00c45783          	lhu	a5,12(s0)
  10328c:	9bf1                	andi	a5,a5,-4
  10328e:	0017e793          	ori	a5,a5,1
  103292:	00f41623          	sh	a5,12(s0)
  103296:	00c45503          	lhu	a0,12(s0)
  10329a:	8cc9                	or	s1,s1,a0
  10329c:	00941623          	sh	s1,12(s0)
  1032a0:	bf41                	j	103230 <__smakebuf_r+0x20>

001032a2 <__swbuf_r>:
  1032a2:	1101                	addi	sp,sp,-32
  1032a4:	cc22                	sw	s0,24(sp)
  1032a6:	ca26                	sw	s1,20(sp)
  1032a8:	c84a                	sw	s2,16(sp)
  1032aa:	ce06                	sw	ra,28(sp)
  1032ac:	c64e                	sw	s3,12(sp)
  1032ae:	892a                	mv	s2,a0
  1032b0:	84ae                	mv	s1,a1
  1032b2:	8432                	mv	s0,a2
  1032b4:	c509                	beqz	a0,1032be <__swbuf_r+0x1c>
  1032b6:	595c                	lw	a5,52(a0)
  1032b8:	e399                	bnez	a5,1032be <__swbuf_r+0x1c>
  1032ba:	a99fe0ef          	jal	ra,101d52 <__sinit>
  1032be:	4c1c                	lw	a5,24(s0)
  1032c0:	c41c                	sw	a5,8(s0)
  1032c2:	00c45783          	lhu	a5,12(s0)
  1032c6:	8ba1                	andi	a5,a5,8
  1032c8:	cbbd                	beqz	a5,10333e <__swbuf_r+0x9c>
  1032ca:	481c                	lw	a5,16(s0)
  1032cc:	cbad                	beqz	a5,10333e <__swbuf_r+0x9c>
  1032ce:	00c41783          	lh	a5,12(s0)
  1032d2:	0ff4f993          	andi	s3,s1,255
  1032d6:	0ff4f493          	andi	s1,s1,255
  1032da:	01279713          	slli	a4,a5,0x12
  1032de:	06075763          	bgez	a4,10334c <__swbuf_r+0xaa>
  1032e2:	401c                	lw	a5,0(s0)
  1032e4:	4808                	lw	a0,16(s0)
  1032e6:	40a78533          	sub	a0,a5,a0
  1032ea:	485c                	lw	a5,20(s0)
  1032ec:	00f54763          	blt	a0,a5,1032fa <__swbuf_r+0x58>
  1032f0:	85a2                	mv	a1,s0
  1032f2:	854a                	mv	a0,s2
  1032f4:	82bfe0ef          	jal	ra,101b1e <_fflush_r>
  1032f8:	e921                	bnez	a0,103348 <__swbuf_r+0xa6>
  1032fa:	441c                	lw	a5,8(s0)
  1032fc:	17fd                	addi	a5,a5,-1
  1032fe:	c41c                	sw	a5,8(s0)
  103300:	401c                	lw	a5,0(s0)
  103302:	00178713          	addi	a4,a5,1 # f001 <_stack_len+0xd001>
  103306:	c018                	sw	a4,0(s0)
  103308:	01378023          	sb	s3,0(a5)
  10330c:	4858                	lw	a4,20(s0)
  10330e:	00150793          	addi	a5,a0,1
  103312:	00f70963          	beq	a4,a5,103324 <__swbuf_r+0x82>
  103316:	00c45783          	lhu	a5,12(s0)
  10331a:	8b85                	andi	a5,a5,1
  10331c:	cb89                	beqz	a5,10332e <__swbuf_r+0x8c>
  10331e:	47a9                	li	a5,10
  103320:	00f49763          	bne	s1,a5,10332e <__swbuf_r+0x8c>
  103324:	85a2                	mv	a1,s0
  103326:	854a                	mv	a0,s2
  103328:	ff6fe0ef          	jal	ra,101b1e <_fflush_r>
  10332c:	ed11                	bnez	a0,103348 <__swbuf_r+0xa6>
  10332e:	40f2                	lw	ra,28(sp)
  103330:	4462                	lw	s0,24(sp)
  103332:	4942                	lw	s2,16(sp)
  103334:	49b2                	lw	s3,12(sp)
  103336:	8526                	mv	a0,s1
  103338:	44d2                	lw	s1,20(sp)
  10333a:	6105                	addi	sp,sp,32
  10333c:	8082                	ret
  10333e:	85a2                	mv	a1,s0
  103340:	854a                	mv	a0,s2
  103342:	e49fe0ef          	jal	ra,10218a <__swsetup_r>
  103346:	d541                	beqz	a0,1032ce <__swbuf_r+0x2c>
  103348:	54fd                	li	s1,-1
  10334a:	b7d5                	j	10332e <__swbuf_r+0x8c>
  10334c:	6709                	lui	a4,0x2
  10334e:	8fd9                	or	a5,a5,a4
  103350:	00f41623          	sh	a5,12(s0)
  103354:	507c                	lw	a5,100(s0)
  103356:	7779                	lui	a4,0xffffe
  103358:	177d                	addi	a4,a4,-1
  10335a:	8ff9                	and	a5,a5,a4
  10335c:	d07c                	sw	a5,100(s0)
  10335e:	b751                	j	1032e2 <__swbuf_r+0x40>

00103360 <__swbuf>:
  103360:	001047b7          	lui	a5,0x104
  103364:	862e                	mv	a2,a1
  103366:	85aa                	mv	a1,a0
  103368:	99c7a503          	lw	a0,-1636(a5) # 10399c <_impure_ptr>
  10336c:	bf1d                	j	1032a2 <__swbuf_r>

0010336e <_fstat_r>:
  10336e:	1141                	addi	sp,sp,-16
  103370:	c422                	sw	s0,8(sp)
  103372:	c226                	sw	s1,4(sp)
  103374:	842a                	mv	s0,a0
  103376:	001044b7          	lui	s1,0x104
  10337a:	852e                	mv	a0,a1
  10337c:	85b2                	mv	a1,a2
  10337e:	c606                	sw	ra,12(sp)
  103380:	0604a023          	sw	zero,96(s1) # 104060 <errno>
  103384:	2879                	jal	103422 <_fstat>
  103386:	57fd                	li	a5,-1
  103388:	00f51663          	bne	a0,a5,103394 <_fstat_r+0x26>
  10338c:	0604a783          	lw	a5,96(s1)
  103390:	c391                	beqz	a5,103394 <_fstat_r+0x26>
  103392:	c01c                	sw	a5,0(s0)
  103394:	40b2                	lw	ra,12(sp)
  103396:	4422                	lw	s0,8(sp)
  103398:	4492                	lw	s1,4(sp)
  10339a:	0141                	addi	sp,sp,16
  10339c:	8082                	ret

0010339e <_isatty_r>:
  10339e:	1141                	addi	sp,sp,-16
  1033a0:	c422                	sw	s0,8(sp)
  1033a2:	c226                	sw	s1,4(sp)
  1033a4:	842a                	mv	s0,a0
  1033a6:	001044b7          	lui	s1,0x104
  1033aa:	852e                	mv	a0,a1
  1033ac:	c606                	sw	ra,12(sp)
  1033ae:	0604a023          	sw	zero,96(s1) # 104060 <errno>
  1033b2:	205d                	jal	103458 <_isatty>
  1033b4:	57fd                	li	a5,-1
  1033b6:	00f51663          	bne	a0,a5,1033c2 <_isatty_r+0x24>
  1033ba:	0604a783          	lw	a5,96(s1)
  1033be:	c391                	beqz	a5,1033c2 <_isatty_r+0x24>
  1033c0:	c01c                	sw	a5,0(s0)
  1033c2:	40b2                	lw	ra,12(sp)
  1033c4:	4422                	lw	s0,8(sp)
  1033c6:	4492                	lw	s1,4(sp)
  1033c8:	0141                	addi	sp,sp,16
  1033ca:	8082                	ret

001033cc <_sbrk_r>:
  1033cc:	1141                	addi	sp,sp,-16
  1033ce:	c422                	sw	s0,8(sp)
  1033d0:	c226                	sw	s1,4(sp)
  1033d2:	842a                	mv	s0,a0
  1033d4:	001044b7          	lui	s1,0x104
  1033d8:	852e                	mv	a0,a1
  1033da:	c606                	sw	ra,12(sp)
  1033dc:	0604a023          	sw	zero,96(s1) # 104060 <errno>
  1033e0:	20dd                	jal	1034c6 <_sbrk>
  1033e2:	57fd                	li	a5,-1
  1033e4:	00f51663          	bne	a0,a5,1033f0 <_sbrk_r+0x24>
  1033e8:	0604a783          	lw	a5,96(s1)
  1033ec:	c391                	beqz	a5,1033f0 <_sbrk_r+0x24>
  1033ee:	c01c                	sw	a5,0(s0)
  1033f0:	40b2                	lw	ra,12(sp)
  1033f2:	4422                	lw	s0,8(sp)
  1033f4:	4492                	lw	s1,4(sp)
  1033f6:	0141                	addi	sp,sp,16
  1033f8:	8082                	ret

001033fa <_close>:
  1033fa:	1141                	addi	sp,sp,-16
  1033fc:	c606                	sw	ra,12(sp)
  1033fe:	c422                	sw	s0,8(sp)
  103400:	03900893          	li	a7,57
  103404:	00000073          	ecall
  103408:	842a                	mv	s0,a0
  10340a:	00055763          	bgez	a0,103418 <_close+0x1e>
  10340e:	40800433          	neg	s0,s0
  103412:	2aa5                	jal	10358a <__errno>
  103414:	c100                	sw	s0,0(a0)
  103416:	547d                	li	s0,-1
  103418:	40b2                	lw	ra,12(sp)
  10341a:	8522                	mv	a0,s0
  10341c:	4422                	lw	s0,8(sp)
  10341e:	0141                	addi	sp,sp,16
  103420:	8082                	ret

00103422 <_fstat>:
  103422:	7175                	addi	sp,sp,-144
  103424:	c326                	sw	s1,132(sp)
  103426:	c706                	sw	ra,140(sp)
  103428:	84ae                	mv	s1,a1
  10342a:	c522                	sw	s0,136(sp)
  10342c:	05000893          	li	a7,80
  103430:	858a                	mv	a1,sp
  103432:	00000073          	ecall
  103436:	842a                	mv	s0,a0
  103438:	00055763          	bgez	a0,103446 <_fstat+0x24>
  10343c:	40800433          	neg	s0,s0
  103440:	22a9                	jal	10358a <__errno>
  103442:	c100                	sw	s0,0(a0)
  103444:	547d                	li	s0,-1
  103446:	8526                	mv	a0,s1
  103448:	858a                	mv	a1,sp
  10344a:	28cd                	jal	10353c <_conv_stat>
  10344c:	40ba                	lw	ra,140(sp)
  10344e:	8522                	mv	a0,s0
  103450:	442a                	lw	s0,136(sp)
  103452:	449a                	lw	s1,132(sp)
  103454:	6149                	addi	sp,sp,144
  103456:	8082                	ret

00103458 <_isatty>:
  103458:	7159                	addi	sp,sp,-112
  10345a:	002c                	addi	a1,sp,8
  10345c:	d686                	sw	ra,108(sp)
  10345e:	37d1                	jal	103422 <_fstat>
  103460:	57fd                	li	a5,-1
  103462:	00f50863          	beq	a0,a5,103472 <_isatty+0x1a>
  103466:	4532                	lw	a0,12(sp)
  103468:	8135                	srli	a0,a0,0xd
  10346a:	8905                	andi	a0,a0,1
  10346c:	50b6                	lw	ra,108(sp)
  10346e:	6165                	addi	sp,sp,112
  103470:	8082                	ret
  103472:	4501                	li	a0,0
  103474:	bfe5                	j	10346c <_isatty+0x14>

00103476 <_lseek>:
  103476:	1141                	addi	sp,sp,-16
  103478:	c606                	sw	ra,12(sp)
  10347a:	c422                	sw	s0,8(sp)
  10347c:	03e00893          	li	a7,62
  103480:	00000073          	ecall
  103484:	842a                	mv	s0,a0
  103486:	00055763          	bgez	a0,103494 <_lseek+0x1e>
  10348a:	40800433          	neg	s0,s0
  10348e:	28f5                	jal	10358a <__errno>
  103490:	c100                	sw	s0,0(a0)
  103492:	547d                	li	s0,-1
  103494:	40b2                	lw	ra,12(sp)
  103496:	8522                	mv	a0,s0
  103498:	4422                	lw	s0,8(sp)
  10349a:	0141                	addi	sp,sp,16
  10349c:	8082                	ret

0010349e <_read>:
  10349e:	1141                	addi	sp,sp,-16
  1034a0:	c606                	sw	ra,12(sp)
  1034a2:	c422                	sw	s0,8(sp)
  1034a4:	03f00893          	li	a7,63
  1034a8:	00000073          	ecall
  1034ac:	842a                	mv	s0,a0
  1034ae:	00055763          	bgez	a0,1034bc <_read+0x1e>
  1034b2:	40800433          	neg	s0,s0
  1034b6:	28d1                	jal	10358a <__errno>
  1034b8:	c100                	sw	s0,0(a0)
  1034ba:	547d                	li	s0,-1
  1034bc:	40b2                	lw	ra,12(sp)
  1034be:	8522                	mv	a0,s0
  1034c0:	4422                	lw	s0,8(sp)
  1034c2:	0141                	addi	sp,sp,16
  1034c4:	8082                	ret

001034c6 <_sbrk>:
  1034c6:	00104737          	lui	a4,0x104
  1034ca:	07072783          	lw	a5,112(a4) # 104070 <heap_end.0>
  1034ce:	1141                	addi	sp,sp,-16
  1034d0:	c606                	sw	ra,12(sp)
  1034d2:	86aa                	mv	a3,a0
  1034d4:	e395                	bnez	a5,1034f8 <_sbrk+0x32>
  1034d6:	0d600893          	li	a7,214
  1034da:	4501                	li	a0,0
  1034dc:	00000073          	ecall
  1034e0:	57fd                	li	a5,-1
  1034e2:	00f51963          	bne	a0,a5,1034f4 <_sbrk+0x2e>
  1034e6:	2055                	jal	10358a <__errno>
  1034e8:	47b1                	li	a5,12
  1034ea:	c11c                	sw	a5,0(a0)
  1034ec:	557d                	li	a0,-1
  1034ee:	40b2                	lw	ra,12(sp)
  1034f0:	0141                	addi	sp,sp,16
  1034f2:	8082                	ret
  1034f4:	06a72823          	sw	a0,112(a4)
  1034f8:	07072783          	lw	a5,112(a4)
  1034fc:	0d600893          	li	a7,214
  103500:	96be                	add	a3,a3,a5
  103502:	8536                	mv	a0,a3
  103504:	00000073          	ecall
  103508:	fcd51fe3          	bne	a0,a3,1034e6 <_sbrk+0x20>
  10350c:	06a72823          	sw	a0,112(a4)
  103510:	853e                	mv	a0,a5
  103512:	bff1                	j	1034ee <_sbrk+0x28>

00103514 <_write>:
  103514:	1141                	addi	sp,sp,-16
  103516:	c606                	sw	ra,12(sp)
  103518:	c422                	sw	s0,8(sp)
  10351a:	04000893          	li	a7,64
  10351e:	00000073          	ecall
  103522:	842a                	mv	s0,a0
  103524:	00055763          	bgez	a0,103532 <_write+0x1e>
  103528:	40800433          	neg	s0,s0
  10352c:	28b9                	jal	10358a <__errno>
  10352e:	c100                	sw	s0,0(a0)
  103530:	547d                	li	s0,-1
  103532:	40b2                	lw	ra,12(sp)
  103534:	8522                	mv	a0,s0
  103536:	4422                	lw	s0,8(sp)
  103538:	0141                	addi	sp,sp,16
  10353a:	8082                	ret

0010353c <_conv_stat>:
  10353c:	419c                	lw	a5,0(a1)
  10353e:	45b8                	lw	a4,72(a1)
  103540:	00f51023          	sh	a5,0(a0)
  103544:	459c                	lw	a5,8(a1)
  103546:	00f51123          	sh	a5,2(a0)
  10354a:	499c                	lw	a5,16(a1)
  10354c:	c15c                	sw	a5,4(a0)
  10354e:	49dc                	lw	a5,20(a1)
  103550:	00f51423          	sh	a5,8(a0)
  103554:	4d9c                	lw	a5,24(a1)
  103556:	00f51523          	sh	a5,10(a0)
  10355a:	4ddc                	lw	a5,28(a1)
  10355c:	00f51623          	sh	a5,12(a0)
  103560:	519c                	lw	a5,32(a1)
  103562:	00f51723          	sh	a5,14(a0)
  103566:	599c                	lw	a5,48(a1)
  103568:	c91c                	sw	a5,16(a0)
  10356a:	41bc                	lw	a5,64(a1)
  10356c:	c57c                	sw	a5,76(a0)
  10356e:	5d9c                	lw	a5,56(a1)
  103570:	c53c                	sw	a5,72(a0)
  103572:	45fc                	lw	a5,76(a1)
  103574:	cd18                	sw	a4,24(a0)
  103576:	4db8                	lw	a4,88(a1)
  103578:	cd5c                	sw	a5,28(a0)
  10357a:	4dfc                	lw	a5,92(a1)
  10357c:	d518                	sw	a4,40(a0)
  10357e:	55b8                	lw	a4,104(a1)
  103580:	d55c                	sw	a5,44(a0)
  103582:	55fc                	lw	a5,108(a1)
  103584:	dd18                	sw	a4,56(a0)
  103586:	dd5c                	sw	a5,60(a0)
  103588:	8082                	ret

0010358a <__errno>:
  10358a:	001047b7          	lui	a5,0x104
  10358e:	99c7a503          	lw	a0,-1636(a5) # 10399c <_impure_ptr>
  103592:	8082                	ret
